ARM GAS  C:\Users\zhaohe\AppData\Local\Temp\ccBd5B9N.s 			page 1


   1              		.cpu cortex-m4
   2              		.arch armv7e-m
   3              		.fpu fpv4-sp-d16
   4              		.eabi_attribute 27, 1
   5              		.eabi_attribute 28, 1
   6              		.eabi_attribute 20, 1
   7              		.eabi_attribute 21, 1
   8              		.eabi_attribute 23, 3
   9              		.eabi_attribute 24, 1
  10              		.eabi_attribute 25, 1
  11              		.eabi_attribute 26, 1
  12              		.eabi_attribute 30, 1
  13              		.eabi_attribute 34, 1
  14              		.eabi_attribute 18, 4
  15              		.file	"event_groups.c"
  16              		.text
  17              	.Ltext0:
  18              		.cfi_sections	.debug_frame
  19              		.section	.text.prvTestWaitCondition,"ax",%progbits
  20              		.align	1
  21              		.syntax unified
  22              		.thumb
  23              		.thumb_func
  25              	prvTestWaitCondition:
  26              	.LVL0:
  27              	.LFB15:
  28              		.file 1 "Middlewares/Third_Party/FreeRTOS/Source/event_groups.c"
   1:Middlewares/Third_Party/FreeRTOS/Source/event_groups.c **** /*
   2:Middlewares/Third_Party/FreeRTOS/Source/event_groups.c ****  * FreeRTOS Kernel V10.3.1
   3:Middlewares/Third_Party/FreeRTOS/Source/event_groups.c ****  * Copyright (C) 2020 Amazon.com, Inc. or its affiliates.  All Rights Reserved.
   4:Middlewares/Third_Party/FreeRTOS/Source/event_groups.c ****  *
   5:Middlewares/Third_Party/FreeRTOS/Source/event_groups.c ****  * Permission is hereby granted, free of charge, to any person obtaining a copy of
   6:Middlewares/Third_Party/FreeRTOS/Source/event_groups.c ****  * this software and associated documentation files (the "Software"), to deal in
   7:Middlewares/Third_Party/FreeRTOS/Source/event_groups.c ****  * the Software without restriction, including without limitation the rights to
   8:Middlewares/Third_Party/FreeRTOS/Source/event_groups.c ****  * use, copy, modify, merge, publish, distribute, sublicense, and/or sell copies of
   9:Middlewares/Third_Party/FreeRTOS/Source/event_groups.c ****  * the Software, and to permit persons to whom the Software is furnished to do so,
  10:Middlewares/Third_Party/FreeRTOS/Source/event_groups.c ****  * subject to the following conditions:
  11:Middlewares/Third_Party/FreeRTOS/Source/event_groups.c ****  *
  12:Middlewares/Third_Party/FreeRTOS/Source/event_groups.c ****  * The above copyright notice and this permission notice shall be included in all
  13:Middlewares/Third_Party/FreeRTOS/Source/event_groups.c ****  * copies or substantial portions of the Software.
  14:Middlewares/Third_Party/FreeRTOS/Source/event_groups.c ****  *
  15:Middlewares/Third_Party/FreeRTOS/Source/event_groups.c ****  * THE SOFTWARE IS PROVIDED "AS IS", WITHOUT WARRANTY OF ANY KIND, EXPRESS OR
  16:Middlewares/Third_Party/FreeRTOS/Source/event_groups.c ****  * IMPLIED, INCLUDING BUT NOT LIMITED TO THE WARRANTIES OF MERCHANTABILITY, FITNESS
  17:Middlewares/Third_Party/FreeRTOS/Source/event_groups.c ****  * FOR A PARTICULAR PURPOSE AND NONINFRINGEMENT. IN NO EVENT SHALL THE AUTHORS OR
  18:Middlewares/Third_Party/FreeRTOS/Source/event_groups.c ****  * COPYRIGHT HOLDERS BE LIABLE FOR ANY CLAIM, DAMAGES OR OTHER LIABILITY, WHETHER
  19:Middlewares/Third_Party/FreeRTOS/Source/event_groups.c ****  * IN AN ACTION OF CONTRACT, TORT OR OTHERWISE, ARISING FROM, OUT OF OR IN
  20:Middlewares/Third_Party/FreeRTOS/Source/event_groups.c ****  * CONNECTION WITH THE SOFTWARE OR THE USE OR OTHER DEALINGS IN THE SOFTWARE.
  21:Middlewares/Third_Party/FreeRTOS/Source/event_groups.c ****  *
  22:Middlewares/Third_Party/FreeRTOS/Source/event_groups.c ****  * http://www.FreeRTOS.org
  23:Middlewares/Third_Party/FreeRTOS/Source/event_groups.c ****  * http://aws.amazon.com/freertos
  24:Middlewares/Third_Party/FreeRTOS/Source/event_groups.c ****  *
  25:Middlewares/Third_Party/FreeRTOS/Source/event_groups.c ****  * 1 tab == 4 spaces!
  26:Middlewares/Third_Party/FreeRTOS/Source/event_groups.c ****  */
  27:Middlewares/Third_Party/FreeRTOS/Source/event_groups.c **** 
  28:Middlewares/Third_Party/FreeRTOS/Source/event_groups.c **** /* Standard includes. */
  29:Middlewares/Third_Party/FreeRTOS/Source/event_groups.c **** #include <stdlib.h>
  30:Middlewares/Third_Party/FreeRTOS/Source/event_groups.c **** 
ARM GAS  C:\Users\zhaohe\AppData\Local\Temp\ccBd5B9N.s 			page 2


  31:Middlewares/Third_Party/FreeRTOS/Source/event_groups.c **** /* Defining MPU_WRAPPERS_INCLUDED_FROM_API_FILE prevents task.h from redefining
  32:Middlewares/Third_Party/FreeRTOS/Source/event_groups.c **** all the API functions to use the MPU wrappers.  That should only be done when
  33:Middlewares/Third_Party/FreeRTOS/Source/event_groups.c **** task.h is included from an application file. */
  34:Middlewares/Third_Party/FreeRTOS/Source/event_groups.c **** #define MPU_WRAPPERS_INCLUDED_FROM_API_FILE
  35:Middlewares/Third_Party/FreeRTOS/Source/event_groups.c **** 
  36:Middlewares/Third_Party/FreeRTOS/Source/event_groups.c **** /* FreeRTOS includes. */
  37:Middlewares/Third_Party/FreeRTOS/Source/event_groups.c **** #include "FreeRTOS.h"
  38:Middlewares/Third_Party/FreeRTOS/Source/event_groups.c **** #include "task.h"
  39:Middlewares/Third_Party/FreeRTOS/Source/event_groups.c **** #include "timers.h"
  40:Middlewares/Third_Party/FreeRTOS/Source/event_groups.c **** #include "event_groups.h"
  41:Middlewares/Third_Party/FreeRTOS/Source/event_groups.c **** 
  42:Middlewares/Third_Party/FreeRTOS/Source/event_groups.c **** /* Lint e961, e750 and e9021 are suppressed as a MISRA exception justified
  43:Middlewares/Third_Party/FreeRTOS/Source/event_groups.c **** because the MPU ports require MPU_WRAPPERS_INCLUDED_FROM_API_FILE to be defined
  44:Middlewares/Third_Party/FreeRTOS/Source/event_groups.c **** for the header files above, but not in this file, in order to generate the
  45:Middlewares/Third_Party/FreeRTOS/Source/event_groups.c **** correct privileged Vs unprivileged linkage and placement. */
  46:Middlewares/Third_Party/FreeRTOS/Source/event_groups.c **** #undef MPU_WRAPPERS_INCLUDED_FROM_API_FILE /*lint !e961 !e750 !e9021 See comment above. */
  47:Middlewares/Third_Party/FreeRTOS/Source/event_groups.c **** 
  48:Middlewares/Third_Party/FreeRTOS/Source/event_groups.c **** /* The following bit fields convey control information in a task's event list
  49:Middlewares/Third_Party/FreeRTOS/Source/event_groups.c **** item value.  It is important they don't clash with the
  50:Middlewares/Third_Party/FreeRTOS/Source/event_groups.c **** taskEVENT_LIST_ITEM_VALUE_IN_USE definition. */
  51:Middlewares/Third_Party/FreeRTOS/Source/event_groups.c **** #if configUSE_16_BIT_TICKS == 1
  52:Middlewares/Third_Party/FreeRTOS/Source/event_groups.c **** 	#define eventCLEAR_EVENTS_ON_EXIT_BIT	0x0100U
  53:Middlewares/Third_Party/FreeRTOS/Source/event_groups.c **** 	#define eventUNBLOCKED_DUE_TO_BIT_SET	0x0200U
  54:Middlewares/Third_Party/FreeRTOS/Source/event_groups.c **** 	#define eventWAIT_FOR_ALL_BITS			0x0400U
  55:Middlewares/Third_Party/FreeRTOS/Source/event_groups.c **** 	#define eventEVENT_BITS_CONTROL_BYTES	0xff00U
  56:Middlewares/Third_Party/FreeRTOS/Source/event_groups.c **** #else
  57:Middlewares/Third_Party/FreeRTOS/Source/event_groups.c **** 	#define eventCLEAR_EVENTS_ON_EXIT_BIT	0x01000000UL
  58:Middlewares/Third_Party/FreeRTOS/Source/event_groups.c **** 	#define eventUNBLOCKED_DUE_TO_BIT_SET	0x02000000UL
  59:Middlewares/Third_Party/FreeRTOS/Source/event_groups.c **** 	#define eventWAIT_FOR_ALL_BITS			0x04000000UL
  60:Middlewares/Third_Party/FreeRTOS/Source/event_groups.c **** 	#define eventEVENT_BITS_CONTROL_BYTES	0xff000000UL
  61:Middlewares/Third_Party/FreeRTOS/Source/event_groups.c **** #endif
  62:Middlewares/Third_Party/FreeRTOS/Source/event_groups.c **** 
  63:Middlewares/Third_Party/FreeRTOS/Source/event_groups.c **** typedef struct EventGroupDef_t
  64:Middlewares/Third_Party/FreeRTOS/Source/event_groups.c **** {
  65:Middlewares/Third_Party/FreeRTOS/Source/event_groups.c **** 	EventBits_t uxEventBits;
  66:Middlewares/Third_Party/FreeRTOS/Source/event_groups.c **** 	List_t xTasksWaitingForBits;		/*< List of tasks waiting for a bit to be set. */
  67:Middlewares/Third_Party/FreeRTOS/Source/event_groups.c **** 
  68:Middlewares/Third_Party/FreeRTOS/Source/event_groups.c **** 	#if( configUSE_TRACE_FACILITY == 1 )
  69:Middlewares/Third_Party/FreeRTOS/Source/event_groups.c **** 		UBaseType_t uxEventGroupNumber;
  70:Middlewares/Third_Party/FreeRTOS/Source/event_groups.c **** 	#endif
  71:Middlewares/Third_Party/FreeRTOS/Source/event_groups.c **** 
  72:Middlewares/Third_Party/FreeRTOS/Source/event_groups.c **** 	#if( ( configSUPPORT_STATIC_ALLOCATION == 1 ) && ( configSUPPORT_DYNAMIC_ALLOCATION == 1 ) )
  73:Middlewares/Third_Party/FreeRTOS/Source/event_groups.c **** 		uint8_t ucStaticallyAllocated; /*< Set to pdTRUE if the event group is statically allocated to en
  74:Middlewares/Third_Party/FreeRTOS/Source/event_groups.c **** 	#endif
  75:Middlewares/Third_Party/FreeRTOS/Source/event_groups.c **** } EventGroup_t;
  76:Middlewares/Third_Party/FreeRTOS/Source/event_groups.c **** 
  77:Middlewares/Third_Party/FreeRTOS/Source/event_groups.c **** /*-----------------------------------------------------------*/
  78:Middlewares/Third_Party/FreeRTOS/Source/event_groups.c **** 
  79:Middlewares/Third_Party/FreeRTOS/Source/event_groups.c **** /*
  80:Middlewares/Third_Party/FreeRTOS/Source/event_groups.c ****  * Test the bits set in uxCurrentEventBits to see if the wait condition is met.
  81:Middlewares/Third_Party/FreeRTOS/Source/event_groups.c ****  * The wait condition is defined by xWaitForAllBits.  If xWaitForAllBits is
  82:Middlewares/Third_Party/FreeRTOS/Source/event_groups.c ****  * pdTRUE then the wait condition is met if all the bits set in uxBitsToWaitFor
  83:Middlewares/Third_Party/FreeRTOS/Source/event_groups.c ****  * are also set in uxCurrentEventBits.  If xWaitForAllBits is pdFALSE then the
  84:Middlewares/Third_Party/FreeRTOS/Source/event_groups.c ****  * wait condition is met if any of the bits set in uxBitsToWait for are also set
  85:Middlewares/Third_Party/FreeRTOS/Source/event_groups.c ****  * in uxCurrentEventBits.
  86:Middlewares/Third_Party/FreeRTOS/Source/event_groups.c ****  */
  87:Middlewares/Third_Party/FreeRTOS/Source/event_groups.c **** static BaseType_t prvTestWaitCondition( const EventBits_t uxCurrentEventBits, const EventBits_t uxB
ARM GAS  C:\Users\zhaohe\AppData\Local\Temp\ccBd5B9N.s 			page 3


  88:Middlewares/Third_Party/FreeRTOS/Source/event_groups.c **** 
  89:Middlewares/Third_Party/FreeRTOS/Source/event_groups.c **** /*-----------------------------------------------------------*/
  90:Middlewares/Third_Party/FreeRTOS/Source/event_groups.c **** 
  91:Middlewares/Third_Party/FreeRTOS/Source/event_groups.c **** #if( configSUPPORT_STATIC_ALLOCATION == 1 )
  92:Middlewares/Third_Party/FreeRTOS/Source/event_groups.c **** 
  93:Middlewares/Third_Party/FreeRTOS/Source/event_groups.c **** 	EventGroupHandle_t xEventGroupCreateStatic( StaticEventGroup_t *pxEventGroupBuffer )
  94:Middlewares/Third_Party/FreeRTOS/Source/event_groups.c **** 	{
  95:Middlewares/Third_Party/FreeRTOS/Source/event_groups.c **** 	EventGroup_t *pxEventBits;
  96:Middlewares/Third_Party/FreeRTOS/Source/event_groups.c **** 
  97:Middlewares/Third_Party/FreeRTOS/Source/event_groups.c **** 		/* A StaticEventGroup_t object must be provided. */
  98:Middlewares/Third_Party/FreeRTOS/Source/event_groups.c **** 		configASSERT( pxEventGroupBuffer );
  99:Middlewares/Third_Party/FreeRTOS/Source/event_groups.c **** 
 100:Middlewares/Third_Party/FreeRTOS/Source/event_groups.c **** 		#if( configASSERT_DEFINED == 1 )
 101:Middlewares/Third_Party/FreeRTOS/Source/event_groups.c **** 		{
 102:Middlewares/Third_Party/FreeRTOS/Source/event_groups.c **** 			/* Sanity check that the size of the structure used to declare a
 103:Middlewares/Third_Party/FreeRTOS/Source/event_groups.c **** 			variable of type StaticEventGroup_t equals the size of the real
 104:Middlewares/Third_Party/FreeRTOS/Source/event_groups.c **** 			event group structure. */
 105:Middlewares/Third_Party/FreeRTOS/Source/event_groups.c **** 			volatile size_t xSize = sizeof( StaticEventGroup_t );
 106:Middlewares/Third_Party/FreeRTOS/Source/event_groups.c **** 			configASSERT( xSize == sizeof( EventGroup_t ) );
 107:Middlewares/Third_Party/FreeRTOS/Source/event_groups.c **** 		} /*lint !e529 xSize is referenced if configASSERT() is defined. */
 108:Middlewares/Third_Party/FreeRTOS/Source/event_groups.c **** 		#endif /* configASSERT_DEFINED */
 109:Middlewares/Third_Party/FreeRTOS/Source/event_groups.c **** 
 110:Middlewares/Third_Party/FreeRTOS/Source/event_groups.c **** 		/* The user has provided a statically allocated event group - use it. */
 111:Middlewares/Third_Party/FreeRTOS/Source/event_groups.c **** 		pxEventBits = ( EventGroup_t * ) pxEventGroupBuffer; /*lint !e740 !e9087 EventGroup_t and StaticE
 112:Middlewares/Third_Party/FreeRTOS/Source/event_groups.c **** 
 113:Middlewares/Third_Party/FreeRTOS/Source/event_groups.c **** 		if( pxEventBits != NULL )
 114:Middlewares/Third_Party/FreeRTOS/Source/event_groups.c **** 		{
 115:Middlewares/Third_Party/FreeRTOS/Source/event_groups.c **** 			pxEventBits->uxEventBits = 0;
 116:Middlewares/Third_Party/FreeRTOS/Source/event_groups.c **** 			vListInitialise( &( pxEventBits->xTasksWaitingForBits ) );
 117:Middlewares/Third_Party/FreeRTOS/Source/event_groups.c **** 
 118:Middlewares/Third_Party/FreeRTOS/Source/event_groups.c **** 			#if( configSUPPORT_DYNAMIC_ALLOCATION == 1 )
 119:Middlewares/Third_Party/FreeRTOS/Source/event_groups.c **** 			{
 120:Middlewares/Third_Party/FreeRTOS/Source/event_groups.c **** 				/* Both static and dynamic allocation can be used, so note that
 121:Middlewares/Third_Party/FreeRTOS/Source/event_groups.c **** 				this event group was created statically in case the event group
 122:Middlewares/Third_Party/FreeRTOS/Source/event_groups.c **** 				is later deleted. */
 123:Middlewares/Third_Party/FreeRTOS/Source/event_groups.c **** 				pxEventBits->ucStaticallyAllocated = pdTRUE;
 124:Middlewares/Third_Party/FreeRTOS/Source/event_groups.c **** 			}
 125:Middlewares/Third_Party/FreeRTOS/Source/event_groups.c **** 			#endif /* configSUPPORT_DYNAMIC_ALLOCATION */
 126:Middlewares/Third_Party/FreeRTOS/Source/event_groups.c **** 
 127:Middlewares/Third_Party/FreeRTOS/Source/event_groups.c **** 			traceEVENT_GROUP_CREATE( pxEventBits );
 128:Middlewares/Third_Party/FreeRTOS/Source/event_groups.c **** 		}
 129:Middlewares/Third_Party/FreeRTOS/Source/event_groups.c **** 		else
 130:Middlewares/Third_Party/FreeRTOS/Source/event_groups.c **** 		{
 131:Middlewares/Third_Party/FreeRTOS/Source/event_groups.c **** 			/* xEventGroupCreateStatic should only ever be called with
 132:Middlewares/Third_Party/FreeRTOS/Source/event_groups.c **** 			pxEventGroupBuffer pointing to a pre-allocated (compile time
 133:Middlewares/Third_Party/FreeRTOS/Source/event_groups.c **** 			allocated) StaticEventGroup_t variable. */
 134:Middlewares/Third_Party/FreeRTOS/Source/event_groups.c **** 			traceEVENT_GROUP_CREATE_FAILED();
 135:Middlewares/Third_Party/FreeRTOS/Source/event_groups.c **** 		}
 136:Middlewares/Third_Party/FreeRTOS/Source/event_groups.c **** 
 137:Middlewares/Third_Party/FreeRTOS/Source/event_groups.c **** 		return pxEventBits;
 138:Middlewares/Third_Party/FreeRTOS/Source/event_groups.c **** 	}
 139:Middlewares/Third_Party/FreeRTOS/Source/event_groups.c **** 
 140:Middlewares/Third_Party/FreeRTOS/Source/event_groups.c **** #endif /* configSUPPORT_STATIC_ALLOCATION */
 141:Middlewares/Third_Party/FreeRTOS/Source/event_groups.c **** /*-----------------------------------------------------------*/
 142:Middlewares/Third_Party/FreeRTOS/Source/event_groups.c **** 
 143:Middlewares/Third_Party/FreeRTOS/Source/event_groups.c **** #if( configSUPPORT_DYNAMIC_ALLOCATION == 1 )
 144:Middlewares/Third_Party/FreeRTOS/Source/event_groups.c **** 
ARM GAS  C:\Users\zhaohe\AppData\Local\Temp\ccBd5B9N.s 			page 4


 145:Middlewares/Third_Party/FreeRTOS/Source/event_groups.c **** 	EventGroupHandle_t xEventGroupCreate( void )
 146:Middlewares/Third_Party/FreeRTOS/Source/event_groups.c **** 	{
 147:Middlewares/Third_Party/FreeRTOS/Source/event_groups.c **** 	EventGroup_t *pxEventBits;
 148:Middlewares/Third_Party/FreeRTOS/Source/event_groups.c **** 
 149:Middlewares/Third_Party/FreeRTOS/Source/event_groups.c **** 		/* Allocate the event group.  Justification for MISRA deviation as
 150:Middlewares/Third_Party/FreeRTOS/Source/event_groups.c **** 		follows:  pvPortMalloc() always ensures returned memory blocks are
 151:Middlewares/Third_Party/FreeRTOS/Source/event_groups.c **** 		aligned per the requirements of the MCU stack.  In this case
 152:Middlewares/Third_Party/FreeRTOS/Source/event_groups.c **** 		pvPortMalloc() must return a pointer that is guaranteed to meet the
 153:Middlewares/Third_Party/FreeRTOS/Source/event_groups.c **** 		alignment requirements of the EventGroup_t structure - which (if you
 154:Middlewares/Third_Party/FreeRTOS/Source/event_groups.c **** 		follow it through) is the alignment requirements of the TickType_t type
 155:Middlewares/Third_Party/FreeRTOS/Source/event_groups.c **** 		(EventBits_t being of TickType_t itself).  Therefore, whenever the
 156:Middlewares/Third_Party/FreeRTOS/Source/event_groups.c **** 		stack alignment requirements are greater than or equal to the
 157:Middlewares/Third_Party/FreeRTOS/Source/event_groups.c **** 		TickType_t alignment requirements the cast is safe.  In other cases,
 158:Middlewares/Third_Party/FreeRTOS/Source/event_groups.c **** 		where the natural word size of the architecture is less than
 159:Middlewares/Third_Party/FreeRTOS/Source/event_groups.c **** 		sizeof( TickType_t ), the TickType_t variables will be accessed in two
 160:Middlewares/Third_Party/FreeRTOS/Source/event_groups.c **** 		or more reads operations, and the alignment requirements is only that
 161:Middlewares/Third_Party/FreeRTOS/Source/event_groups.c **** 		of each individual read. */
 162:Middlewares/Third_Party/FreeRTOS/Source/event_groups.c **** 		pxEventBits = ( EventGroup_t * ) pvPortMalloc( sizeof( EventGroup_t ) ); /*lint !e9087 !e9079 see
 163:Middlewares/Third_Party/FreeRTOS/Source/event_groups.c **** 
 164:Middlewares/Third_Party/FreeRTOS/Source/event_groups.c **** 		if( pxEventBits != NULL )
 165:Middlewares/Third_Party/FreeRTOS/Source/event_groups.c **** 		{
 166:Middlewares/Third_Party/FreeRTOS/Source/event_groups.c **** 			pxEventBits->uxEventBits = 0;
 167:Middlewares/Third_Party/FreeRTOS/Source/event_groups.c **** 			vListInitialise( &( pxEventBits->xTasksWaitingForBits ) );
 168:Middlewares/Third_Party/FreeRTOS/Source/event_groups.c **** 
 169:Middlewares/Third_Party/FreeRTOS/Source/event_groups.c **** 			#if( configSUPPORT_STATIC_ALLOCATION == 1 )
 170:Middlewares/Third_Party/FreeRTOS/Source/event_groups.c **** 			{
 171:Middlewares/Third_Party/FreeRTOS/Source/event_groups.c **** 				/* Both static and dynamic allocation can be used, so note this
 172:Middlewares/Third_Party/FreeRTOS/Source/event_groups.c **** 				event group was allocated statically in case the event group is
 173:Middlewares/Third_Party/FreeRTOS/Source/event_groups.c **** 				later deleted. */
 174:Middlewares/Third_Party/FreeRTOS/Source/event_groups.c **** 				pxEventBits->ucStaticallyAllocated = pdFALSE;
 175:Middlewares/Third_Party/FreeRTOS/Source/event_groups.c **** 			}
 176:Middlewares/Third_Party/FreeRTOS/Source/event_groups.c **** 			#endif /* configSUPPORT_STATIC_ALLOCATION */
 177:Middlewares/Third_Party/FreeRTOS/Source/event_groups.c **** 
 178:Middlewares/Third_Party/FreeRTOS/Source/event_groups.c **** 			traceEVENT_GROUP_CREATE( pxEventBits );
 179:Middlewares/Third_Party/FreeRTOS/Source/event_groups.c **** 		}
 180:Middlewares/Third_Party/FreeRTOS/Source/event_groups.c **** 		else
 181:Middlewares/Third_Party/FreeRTOS/Source/event_groups.c **** 		{
 182:Middlewares/Third_Party/FreeRTOS/Source/event_groups.c **** 			traceEVENT_GROUP_CREATE_FAILED(); /*lint !e9063 Else branch only exists to allow tracing and doe
 183:Middlewares/Third_Party/FreeRTOS/Source/event_groups.c **** 		}
 184:Middlewares/Third_Party/FreeRTOS/Source/event_groups.c **** 
 185:Middlewares/Third_Party/FreeRTOS/Source/event_groups.c **** 		return pxEventBits;
 186:Middlewares/Third_Party/FreeRTOS/Source/event_groups.c **** 	}
 187:Middlewares/Third_Party/FreeRTOS/Source/event_groups.c **** 
 188:Middlewares/Third_Party/FreeRTOS/Source/event_groups.c **** #endif /* configSUPPORT_DYNAMIC_ALLOCATION */
 189:Middlewares/Third_Party/FreeRTOS/Source/event_groups.c **** /*-----------------------------------------------------------*/
 190:Middlewares/Third_Party/FreeRTOS/Source/event_groups.c **** 
 191:Middlewares/Third_Party/FreeRTOS/Source/event_groups.c **** EventBits_t xEventGroupSync( EventGroupHandle_t xEventGroup, const EventBits_t uxBitsToSet, const E
 192:Middlewares/Third_Party/FreeRTOS/Source/event_groups.c **** {
 193:Middlewares/Third_Party/FreeRTOS/Source/event_groups.c **** EventBits_t uxOriginalBitValue, uxReturn;
 194:Middlewares/Third_Party/FreeRTOS/Source/event_groups.c **** EventGroup_t *pxEventBits = xEventGroup;
 195:Middlewares/Third_Party/FreeRTOS/Source/event_groups.c **** BaseType_t xAlreadyYielded;
 196:Middlewares/Third_Party/FreeRTOS/Source/event_groups.c **** BaseType_t xTimeoutOccurred = pdFALSE;
 197:Middlewares/Third_Party/FreeRTOS/Source/event_groups.c **** 
 198:Middlewares/Third_Party/FreeRTOS/Source/event_groups.c **** 	configASSERT( ( uxBitsToWaitFor & eventEVENT_BITS_CONTROL_BYTES ) == 0 );
 199:Middlewares/Third_Party/FreeRTOS/Source/event_groups.c **** 	configASSERT( uxBitsToWaitFor != 0 );
 200:Middlewares/Third_Party/FreeRTOS/Source/event_groups.c **** 	#if ( ( INCLUDE_xTaskGetSchedulerState == 1 ) || ( configUSE_TIMERS == 1 ) )
 201:Middlewares/Third_Party/FreeRTOS/Source/event_groups.c **** 	{
ARM GAS  C:\Users\zhaohe\AppData\Local\Temp\ccBd5B9N.s 			page 5


 202:Middlewares/Third_Party/FreeRTOS/Source/event_groups.c **** 		configASSERT( !( ( xTaskGetSchedulerState() == taskSCHEDULER_SUSPENDED ) && ( xTicksToWait != 0 )
 203:Middlewares/Third_Party/FreeRTOS/Source/event_groups.c **** 	}
 204:Middlewares/Third_Party/FreeRTOS/Source/event_groups.c **** 	#endif
 205:Middlewares/Third_Party/FreeRTOS/Source/event_groups.c **** 
 206:Middlewares/Third_Party/FreeRTOS/Source/event_groups.c **** 	vTaskSuspendAll();
 207:Middlewares/Third_Party/FreeRTOS/Source/event_groups.c **** 	{
 208:Middlewares/Third_Party/FreeRTOS/Source/event_groups.c **** 		uxOriginalBitValue = pxEventBits->uxEventBits;
 209:Middlewares/Third_Party/FreeRTOS/Source/event_groups.c **** 
 210:Middlewares/Third_Party/FreeRTOS/Source/event_groups.c **** 		( void ) xEventGroupSetBits( xEventGroup, uxBitsToSet );
 211:Middlewares/Third_Party/FreeRTOS/Source/event_groups.c **** 
 212:Middlewares/Third_Party/FreeRTOS/Source/event_groups.c **** 		if( ( ( uxOriginalBitValue | uxBitsToSet ) & uxBitsToWaitFor ) == uxBitsToWaitFor )
 213:Middlewares/Third_Party/FreeRTOS/Source/event_groups.c **** 		{
 214:Middlewares/Third_Party/FreeRTOS/Source/event_groups.c **** 			/* All the rendezvous bits are now set - no need to block. */
 215:Middlewares/Third_Party/FreeRTOS/Source/event_groups.c **** 			uxReturn = ( uxOriginalBitValue | uxBitsToSet );
 216:Middlewares/Third_Party/FreeRTOS/Source/event_groups.c **** 
 217:Middlewares/Third_Party/FreeRTOS/Source/event_groups.c **** 			/* Rendezvous always clear the bits.  They will have been cleared
 218:Middlewares/Third_Party/FreeRTOS/Source/event_groups.c **** 			already unless this is the only task in the rendezvous. */
 219:Middlewares/Third_Party/FreeRTOS/Source/event_groups.c **** 			pxEventBits->uxEventBits &= ~uxBitsToWaitFor;
 220:Middlewares/Third_Party/FreeRTOS/Source/event_groups.c **** 
 221:Middlewares/Third_Party/FreeRTOS/Source/event_groups.c **** 			xTicksToWait = 0;
 222:Middlewares/Third_Party/FreeRTOS/Source/event_groups.c **** 		}
 223:Middlewares/Third_Party/FreeRTOS/Source/event_groups.c **** 		else
 224:Middlewares/Third_Party/FreeRTOS/Source/event_groups.c **** 		{
 225:Middlewares/Third_Party/FreeRTOS/Source/event_groups.c **** 			if( xTicksToWait != ( TickType_t ) 0 )
 226:Middlewares/Third_Party/FreeRTOS/Source/event_groups.c **** 			{
 227:Middlewares/Third_Party/FreeRTOS/Source/event_groups.c **** 				traceEVENT_GROUP_SYNC_BLOCK( xEventGroup, uxBitsToSet, uxBitsToWaitFor );
 228:Middlewares/Third_Party/FreeRTOS/Source/event_groups.c **** 
 229:Middlewares/Third_Party/FreeRTOS/Source/event_groups.c **** 				/* Store the bits that the calling task is waiting for in the
 230:Middlewares/Third_Party/FreeRTOS/Source/event_groups.c **** 				task's event list item so the kernel knows when a match is
 231:Middlewares/Third_Party/FreeRTOS/Source/event_groups.c **** 				found.  Then enter the blocked state. */
 232:Middlewares/Third_Party/FreeRTOS/Source/event_groups.c **** 				vTaskPlaceOnUnorderedEventList( &( pxEventBits->xTasksWaitingForBits ), ( uxBitsToWaitFor | eve
 233:Middlewares/Third_Party/FreeRTOS/Source/event_groups.c **** 
 234:Middlewares/Third_Party/FreeRTOS/Source/event_groups.c **** 				/* This assignment is obsolete as uxReturn will get set after
 235:Middlewares/Third_Party/FreeRTOS/Source/event_groups.c **** 				the task unblocks, but some compilers mistakenly generate a
 236:Middlewares/Third_Party/FreeRTOS/Source/event_groups.c **** 				warning about uxReturn being returned without being set if the
 237:Middlewares/Third_Party/FreeRTOS/Source/event_groups.c **** 				assignment is omitted. */
 238:Middlewares/Third_Party/FreeRTOS/Source/event_groups.c **** 				uxReturn = 0;
 239:Middlewares/Third_Party/FreeRTOS/Source/event_groups.c **** 			}
 240:Middlewares/Third_Party/FreeRTOS/Source/event_groups.c **** 			else
 241:Middlewares/Third_Party/FreeRTOS/Source/event_groups.c **** 			{
 242:Middlewares/Third_Party/FreeRTOS/Source/event_groups.c **** 				/* The rendezvous bits were not set, but no block time was
 243:Middlewares/Third_Party/FreeRTOS/Source/event_groups.c **** 				specified - just return the current event bit value. */
 244:Middlewares/Third_Party/FreeRTOS/Source/event_groups.c **** 				uxReturn = pxEventBits->uxEventBits;
 245:Middlewares/Third_Party/FreeRTOS/Source/event_groups.c **** 				xTimeoutOccurred = pdTRUE;
 246:Middlewares/Third_Party/FreeRTOS/Source/event_groups.c **** 			}
 247:Middlewares/Third_Party/FreeRTOS/Source/event_groups.c **** 		}
 248:Middlewares/Third_Party/FreeRTOS/Source/event_groups.c **** 	}
 249:Middlewares/Third_Party/FreeRTOS/Source/event_groups.c **** 	xAlreadyYielded = xTaskResumeAll();
 250:Middlewares/Third_Party/FreeRTOS/Source/event_groups.c **** 
 251:Middlewares/Third_Party/FreeRTOS/Source/event_groups.c **** 	if( xTicksToWait != ( TickType_t ) 0 )
 252:Middlewares/Third_Party/FreeRTOS/Source/event_groups.c **** 	{
 253:Middlewares/Third_Party/FreeRTOS/Source/event_groups.c **** 		if( xAlreadyYielded == pdFALSE )
 254:Middlewares/Third_Party/FreeRTOS/Source/event_groups.c **** 		{
 255:Middlewares/Third_Party/FreeRTOS/Source/event_groups.c **** 			portYIELD_WITHIN_API();
 256:Middlewares/Third_Party/FreeRTOS/Source/event_groups.c **** 		}
 257:Middlewares/Third_Party/FreeRTOS/Source/event_groups.c **** 		else
 258:Middlewares/Third_Party/FreeRTOS/Source/event_groups.c **** 		{
ARM GAS  C:\Users\zhaohe\AppData\Local\Temp\ccBd5B9N.s 			page 6


 259:Middlewares/Third_Party/FreeRTOS/Source/event_groups.c **** 			mtCOVERAGE_TEST_MARKER();
 260:Middlewares/Third_Party/FreeRTOS/Source/event_groups.c **** 		}
 261:Middlewares/Third_Party/FreeRTOS/Source/event_groups.c **** 
 262:Middlewares/Third_Party/FreeRTOS/Source/event_groups.c **** 		/* The task blocked to wait for its required bits to be set - at this
 263:Middlewares/Third_Party/FreeRTOS/Source/event_groups.c **** 		point either the required bits were set or the block time expired.  If
 264:Middlewares/Third_Party/FreeRTOS/Source/event_groups.c **** 		the required bits were set they will have been stored in the task's
 265:Middlewares/Third_Party/FreeRTOS/Source/event_groups.c **** 		event list item, and they should now be retrieved then cleared. */
 266:Middlewares/Third_Party/FreeRTOS/Source/event_groups.c **** 		uxReturn = uxTaskResetEventItemValue();
 267:Middlewares/Third_Party/FreeRTOS/Source/event_groups.c **** 
 268:Middlewares/Third_Party/FreeRTOS/Source/event_groups.c **** 		if( ( uxReturn & eventUNBLOCKED_DUE_TO_BIT_SET ) == ( EventBits_t ) 0 )
 269:Middlewares/Third_Party/FreeRTOS/Source/event_groups.c **** 		{
 270:Middlewares/Third_Party/FreeRTOS/Source/event_groups.c **** 			/* The task timed out, just return the current event bit value. */
 271:Middlewares/Third_Party/FreeRTOS/Source/event_groups.c **** 			taskENTER_CRITICAL();
 272:Middlewares/Third_Party/FreeRTOS/Source/event_groups.c **** 			{
 273:Middlewares/Third_Party/FreeRTOS/Source/event_groups.c **** 				uxReturn = pxEventBits->uxEventBits;
 274:Middlewares/Third_Party/FreeRTOS/Source/event_groups.c **** 
 275:Middlewares/Third_Party/FreeRTOS/Source/event_groups.c **** 				/* Although the task got here because it timed out before the
 276:Middlewares/Third_Party/FreeRTOS/Source/event_groups.c **** 				bits it was waiting for were set, it is possible that since it
 277:Middlewares/Third_Party/FreeRTOS/Source/event_groups.c **** 				unblocked another task has set the bits.  If this is the case
 278:Middlewares/Third_Party/FreeRTOS/Source/event_groups.c **** 				then it needs to clear the bits before exiting. */
 279:Middlewares/Third_Party/FreeRTOS/Source/event_groups.c **** 				if( ( uxReturn & uxBitsToWaitFor ) == uxBitsToWaitFor )
 280:Middlewares/Third_Party/FreeRTOS/Source/event_groups.c **** 				{
 281:Middlewares/Third_Party/FreeRTOS/Source/event_groups.c **** 					pxEventBits->uxEventBits &= ~uxBitsToWaitFor;
 282:Middlewares/Third_Party/FreeRTOS/Source/event_groups.c **** 				}
 283:Middlewares/Third_Party/FreeRTOS/Source/event_groups.c **** 				else
 284:Middlewares/Third_Party/FreeRTOS/Source/event_groups.c **** 				{
 285:Middlewares/Third_Party/FreeRTOS/Source/event_groups.c **** 					mtCOVERAGE_TEST_MARKER();
 286:Middlewares/Third_Party/FreeRTOS/Source/event_groups.c **** 				}
 287:Middlewares/Third_Party/FreeRTOS/Source/event_groups.c **** 			}
 288:Middlewares/Third_Party/FreeRTOS/Source/event_groups.c **** 			taskEXIT_CRITICAL();
 289:Middlewares/Third_Party/FreeRTOS/Source/event_groups.c **** 
 290:Middlewares/Third_Party/FreeRTOS/Source/event_groups.c **** 			xTimeoutOccurred = pdTRUE;
 291:Middlewares/Third_Party/FreeRTOS/Source/event_groups.c **** 		}
 292:Middlewares/Third_Party/FreeRTOS/Source/event_groups.c **** 		else
 293:Middlewares/Third_Party/FreeRTOS/Source/event_groups.c **** 		{
 294:Middlewares/Third_Party/FreeRTOS/Source/event_groups.c **** 			/* The task unblocked because the bits were set. */
 295:Middlewares/Third_Party/FreeRTOS/Source/event_groups.c **** 		}
 296:Middlewares/Third_Party/FreeRTOS/Source/event_groups.c **** 
 297:Middlewares/Third_Party/FreeRTOS/Source/event_groups.c **** 		/* Control bits might be set as the task had blocked should not be
 298:Middlewares/Third_Party/FreeRTOS/Source/event_groups.c **** 		returned. */
 299:Middlewares/Third_Party/FreeRTOS/Source/event_groups.c **** 		uxReturn &= ~eventEVENT_BITS_CONTROL_BYTES;
 300:Middlewares/Third_Party/FreeRTOS/Source/event_groups.c **** 	}
 301:Middlewares/Third_Party/FreeRTOS/Source/event_groups.c **** 
 302:Middlewares/Third_Party/FreeRTOS/Source/event_groups.c **** 	traceEVENT_GROUP_SYNC_END( xEventGroup, uxBitsToSet, uxBitsToWaitFor, xTimeoutOccurred );
 303:Middlewares/Third_Party/FreeRTOS/Source/event_groups.c **** 
 304:Middlewares/Third_Party/FreeRTOS/Source/event_groups.c **** 	/* Prevent compiler warnings when trace macros are not used. */
 305:Middlewares/Third_Party/FreeRTOS/Source/event_groups.c **** 	( void ) xTimeoutOccurred;
 306:Middlewares/Third_Party/FreeRTOS/Source/event_groups.c **** 
 307:Middlewares/Third_Party/FreeRTOS/Source/event_groups.c **** 	return uxReturn;
 308:Middlewares/Third_Party/FreeRTOS/Source/event_groups.c **** }
 309:Middlewares/Third_Party/FreeRTOS/Source/event_groups.c **** /*-----------------------------------------------------------*/
 310:Middlewares/Third_Party/FreeRTOS/Source/event_groups.c **** 
 311:Middlewares/Third_Party/FreeRTOS/Source/event_groups.c **** EventBits_t xEventGroupWaitBits( EventGroupHandle_t xEventGroup, const EventBits_t uxBitsToWaitFor,
 312:Middlewares/Third_Party/FreeRTOS/Source/event_groups.c **** {
 313:Middlewares/Third_Party/FreeRTOS/Source/event_groups.c **** EventGroup_t *pxEventBits = xEventGroup;
 314:Middlewares/Third_Party/FreeRTOS/Source/event_groups.c **** EventBits_t uxReturn, uxControlBits = 0;
 315:Middlewares/Third_Party/FreeRTOS/Source/event_groups.c **** BaseType_t xWaitConditionMet, xAlreadyYielded;
ARM GAS  C:\Users\zhaohe\AppData\Local\Temp\ccBd5B9N.s 			page 7


 316:Middlewares/Third_Party/FreeRTOS/Source/event_groups.c **** BaseType_t xTimeoutOccurred = pdFALSE;
 317:Middlewares/Third_Party/FreeRTOS/Source/event_groups.c **** 
 318:Middlewares/Third_Party/FreeRTOS/Source/event_groups.c **** 	/* Check the user is not attempting to wait on the bits used by the kernel
 319:Middlewares/Third_Party/FreeRTOS/Source/event_groups.c **** 	itself, and that at least one bit is being requested. */
 320:Middlewares/Third_Party/FreeRTOS/Source/event_groups.c **** 	configASSERT( xEventGroup );
 321:Middlewares/Third_Party/FreeRTOS/Source/event_groups.c **** 	configASSERT( ( uxBitsToWaitFor & eventEVENT_BITS_CONTROL_BYTES ) == 0 );
 322:Middlewares/Third_Party/FreeRTOS/Source/event_groups.c **** 	configASSERT( uxBitsToWaitFor != 0 );
 323:Middlewares/Third_Party/FreeRTOS/Source/event_groups.c **** 	#if ( ( INCLUDE_xTaskGetSchedulerState == 1 ) || ( configUSE_TIMERS == 1 ) )
 324:Middlewares/Third_Party/FreeRTOS/Source/event_groups.c **** 	{
 325:Middlewares/Third_Party/FreeRTOS/Source/event_groups.c **** 		configASSERT( !( ( xTaskGetSchedulerState() == taskSCHEDULER_SUSPENDED ) && ( xTicksToWait != 0 )
 326:Middlewares/Third_Party/FreeRTOS/Source/event_groups.c **** 	}
 327:Middlewares/Third_Party/FreeRTOS/Source/event_groups.c **** 	#endif
 328:Middlewares/Third_Party/FreeRTOS/Source/event_groups.c **** 
 329:Middlewares/Third_Party/FreeRTOS/Source/event_groups.c **** 	vTaskSuspendAll();
 330:Middlewares/Third_Party/FreeRTOS/Source/event_groups.c **** 	{
 331:Middlewares/Third_Party/FreeRTOS/Source/event_groups.c **** 		const EventBits_t uxCurrentEventBits = pxEventBits->uxEventBits;
 332:Middlewares/Third_Party/FreeRTOS/Source/event_groups.c **** 
 333:Middlewares/Third_Party/FreeRTOS/Source/event_groups.c **** 		/* Check to see if the wait condition is already met or not. */
 334:Middlewares/Third_Party/FreeRTOS/Source/event_groups.c **** 		xWaitConditionMet = prvTestWaitCondition( uxCurrentEventBits, uxBitsToWaitFor, xWaitForAllBits );
 335:Middlewares/Third_Party/FreeRTOS/Source/event_groups.c **** 
 336:Middlewares/Third_Party/FreeRTOS/Source/event_groups.c **** 		if( xWaitConditionMet != pdFALSE )
 337:Middlewares/Third_Party/FreeRTOS/Source/event_groups.c **** 		{
 338:Middlewares/Third_Party/FreeRTOS/Source/event_groups.c **** 			/* The wait condition has already been met so there is no need to
 339:Middlewares/Third_Party/FreeRTOS/Source/event_groups.c **** 			block. */
 340:Middlewares/Third_Party/FreeRTOS/Source/event_groups.c **** 			uxReturn = uxCurrentEventBits;
 341:Middlewares/Third_Party/FreeRTOS/Source/event_groups.c **** 			xTicksToWait = ( TickType_t ) 0;
 342:Middlewares/Third_Party/FreeRTOS/Source/event_groups.c **** 
 343:Middlewares/Third_Party/FreeRTOS/Source/event_groups.c **** 			/* Clear the wait bits if requested to do so. */
 344:Middlewares/Third_Party/FreeRTOS/Source/event_groups.c **** 			if( xClearOnExit != pdFALSE )
 345:Middlewares/Third_Party/FreeRTOS/Source/event_groups.c **** 			{
 346:Middlewares/Third_Party/FreeRTOS/Source/event_groups.c **** 				pxEventBits->uxEventBits &= ~uxBitsToWaitFor;
 347:Middlewares/Third_Party/FreeRTOS/Source/event_groups.c **** 			}
 348:Middlewares/Third_Party/FreeRTOS/Source/event_groups.c **** 			else
 349:Middlewares/Third_Party/FreeRTOS/Source/event_groups.c **** 			{
 350:Middlewares/Third_Party/FreeRTOS/Source/event_groups.c **** 				mtCOVERAGE_TEST_MARKER();
 351:Middlewares/Third_Party/FreeRTOS/Source/event_groups.c **** 			}
 352:Middlewares/Third_Party/FreeRTOS/Source/event_groups.c **** 		}
 353:Middlewares/Third_Party/FreeRTOS/Source/event_groups.c **** 		else if( xTicksToWait == ( TickType_t ) 0 )
 354:Middlewares/Third_Party/FreeRTOS/Source/event_groups.c **** 		{
 355:Middlewares/Third_Party/FreeRTOS/Source/event_groups.c **** 			/* The wait condition has not been met, but no block time was
 356:Middlewares/Third_Party/FreeRTOS/Source/event_groups.c **** 			specified, so just return the current value. */
 357:Middlewares/Third_Party/FreeRTOS/Source/event_groups.c **** 			uxReturn = uxCurrentEventBits;
 358:Middlewares/Third_Party/FreeRTOS/Source/event_groups.c **** 			xTimeoutOccurred = pdTRUE;
 359:Middlewares/Third_Party/FreeRTOS/Source/event_groups.c **** 		}
 360:Middlewares/Third_Party/FreeRTOS/Source/event_groups.c **** 		else
 361:Middlewares/Third_Party/FreeRTOS/Source/event_groups.c **** 		{
 362:Middlewares/Third_Party/FreeRTOS/Source/event_groups.c **** 			/* The task is going to block to wait for its required bits to be
 363:Middlewares/Third_Party/FreeRTOS/Source/event_groups.c **** 			set.  uxControlBits are used to remember the specified behaviour of
 364:Middlewares/Third_Party/FreeRTOS/Source/event_groups.c **** 			this call to xEventGroupWaitBits() - for use when the event bits
 365:Middlewares/Third_Party/FreeRTOS/Source/event_groups.c **** 			unblock the task. */
 366:Middlewares/Third_Party/FreeRTOS/Source/event_groups.c **** 			if( xClearOnExit != pdFALSE )
 367:Middlewares/Third_Party/FreeRTOS/Source/event_groups.c **** 			{
 368:Middlewares/Third_Party/FreeRTOS/Source/event_groups.c **** 				uxControlBits |= eventCLEAR_EVENTS_ON_EXIT_BIT;
 369:Middlewares/Third_Party/FreeRTOS/Source/event_groups.c **** 			}
 370:Middlewares/Third_Party/FreeRTOS/Source/event_groups.c **** 			else
 371:Middlewares/Third_Party/FreeRTOS/Source/event_groups.c **** 			{
 372:Middlewares/Third_Party/FreeRTOS/Source/event_groups.c **** 				mtCOVERAGE_TEST_MARKER();
ARM GAS  C:\Users\zhaohe\AppData\Local\Temp\ccBd5B9N.s 			page 8


 373:Middlewares/Third_Party/FreeRTOS/Source/event_groups.c **** 			}
 374:Middlewares/Third_Party/FreeRTOS/Source/event_groups.c **** 
 375:Middlewares/Third_Party/FreeRTOS/Source/event_groups.c **** 			if( xWaitForAllBits != pdFALSE )
 376:Middlewares/Third_Party/FreeRTOS/Source/event_groups.c **** 			{
 377:Middlewares/Third_Party/FreeRTOS/Source/event_groups.c **** 				uxControlBits |= eventWAIT_FOR_ALL_BITS;
 378:Middlewares/Third_Party/FreeRTOS/Source/event_groups.c **** 			}
 379:Middlewares/Third_Party/FreeRTOS/Source/event_groups.c **** 			else
 380:Middlewares/Third_Party/FreeRTOS/Source/event_groups.c **** 			{
 381:Middlewares/Third_Party/FreeRTOS/Source/event_groups.c **** 				mtCOVERAGE_TEST_MARKER();
 382:Middlewares/Third_Party/FreeRTOS/Source/event_groups.c **** 			}
 383:Middlewares/Third_Party/FreeRTOS/Source/event_groups.c **** 
 384:Middlewares/Third_Party/FreeRTOS/Source/event_groups.c **** 			/* Store the bits that the calling task is waiting for in the
 385:Middlewares/Third_Party/FreeRTOS/Source/event_groups.c **** 			task's event list item so the kernel knows when a match is
 386:Middlewares/Third_Party/FreeRTOS/Source/event_groups.c **** 			found.  Then enter the blocked state. */
 387:Middlewares/Third_Party/FreeRTOS/Source/event_groups.c **** 			vTaskPlaceOnUnorderedEventList( &( pxEventBits->xTasksWaitingForBits ), ( uxBitsToWaitFor | uxCo
 388:Middlewares/Third_Party/FreeRTOS/Source/event_groups.c **** 
 389:Middlewares/Third_Party/FreeRTOS/Source/event_groups.c **** 			/* This is obsolete as it will get set after the task unblocks, but
 390:Middlewares/Third_Party/FreeRTOS/Source/event_groups.c **** 			some compilers mistakenly generate a warning about the variable
 391:Middlewares/Third_Party/FreeRTOS/Source/event_groups.c **** 			being returned without being set if it is not done. */
 392:Middlewares/Third_Party/FreeRTOS/Source/event_groups.c **** 			uxReturn = 0;
 393:Middlewares/Third_Party/FreeRTOS/Source/event_groups.c **** 
 394:Middlewares/Third_Party/FreeRTOS/Source/event_groups.c **** 			traceEVENT_GROUP_WAIT_BITS_BLOCK( xEventGroup, uxBitsToWaitFor );
 395:Middlewares/Third_Party/FreeRTOS/Source/event_groups.c **** 		}
 396:Middlewares/Third_Party/FreeRTOS/Source/event_groups.c **** 	}
 397:Middlewares/Third_Party/FreeRTOS/Source/event_groups.c **** 	xAlreadyYielded = xTaskResumeAll();
 398:Middlewares/Third_Party/FreeRTOS/Source/event_groups.c **** 
 399:Middlewares/Third_Party/FreeRTOS/Source/event_groups.c **** 	if( xTicksToWait != ( TickType_t ) 0 )
 400:Middlewares/Third_Party/FreeRTOS/Source/event_groups.c **** 	{
 401:Middlewares/Third_Party/FreeRTOS/Source/event_groups.c **** 		if( xAlreadyYielded == pdFALSE )
 402:Middlewares/Third_Party/FreeRTOS/Source/event_groups.c **** 		{
 403:Middlewares/Third_Party/FreeRTOS/Source/event_groups.c **** 			portYIELD_WITHIN_API();
 404:Middlewares/Third_Party/FreeRTOS/Source/event_groups.c **** 		}
 405:Middlewares/Third_Party/FreeRTOS/Source/event_groups.c **** 		else
 406:Middlewares/Third_Party/FreeRTOS/Source/event_groups.c **** 		{
 407:Middlewares/Third_Party/FreeRTOS/Source/event_groups.c **** 			mtCOVERAGE_TEST_MARKER();
 408:Middlewares/Third_Party/FreeRTOS/Source/event_groups.c **** 		}
 409:Middlewares/Third_Party/FreeRTOS/Source/event_groups.c **** 
 410:Middlewares/Third_Party/FreeRTOS/Source/event_groups.c **** 		/* The task blocked to wait for its required bits to be set - at this
 411:Middlewares/Third_Party/FreeRTOS/Source/event_groups.c **** 		point either the required bits were set or the block time expired.  If
 412:Middlewares/Third_Party/FreeRTOS/Source/event_groups.c **** 		the required bits were set they will have been stored in the task's
 413:Middlewares/Third_Party/FreeRTOS/Source/event_groups.c **** 		event list item, and they should now be retrieved then cleared. */
 414:Middlewares/Third_Party/FreeRTOS/Source/event_groups.c **** 		uxReturn = uxTaskResetEventItemValue();
 415:Middlewares/Third_Party/FreeRTOS/Source/event_groups.c **** 
 416:Middlewares/Third_Party/FreeRTOS/Source/event_groups.c **** 		if( ( uxReturn & eventUNBLOCKED_DUE_TO_BIT_SET ) == ( EventBits_t ) 0 )
 417:Middlewares/Third_Party/FreeRTOS/Source/event_groups.c **** 		{
 418:Middlewares/Third_Party/FreeRTOS/Source/event_groups.c **** 			taskENTER_CRITICAL();
 419:Middlewares/Third_Party/FreeRTOS/Source/event_groups.c **** 			{
 420:Middlewares/Third_Party/FreeRTOS/Source/event_groups.c **** 				/* The task timed out, just return the current event bit value. */
 421:Middlewares/Third_Party/FreeRTOS/Source/event_groups.c **** 				uxReturn = pxEventBits->uxEventBits;
 422:Middlewares/Third_Party/FreeRTOS/Source/event_groups.c **** 
 423:Middlewares/Third_Party/FreeRTOS/Source/event_groups.c **** 				/* It is possible that the event bits were updated between this
 424:Middlewares/Third_Party/FreeRTOS/Source/event_groups.c **** 				task leaving the Blocked state and running again. */
 425:Middlewares/Third_Party/FreeRTOS/Source/event_groups.c **** 				if( prvTestWaitCondition( uxReturn, uxBitsToWaitFor, xWaitForAllBits ) != pdFALSE )
 426:Middlewares/Third_Party/FreeRTOS/Source/event_groups.c **** 				{
 427:Middlewares/Third_Party/FreeRTOS/Source/event_groups.c **** 					if( xClearOnExit != pdFALSE )
 428:Middlewares/Third_Party/FreeRTOS/Source/event_groups.c **** 					{
 429:Middlewares/Third_Party/FreeRTOS/Source/event_groups.c **** 						pxEventBits->uxEventBits &= ~uxBitsToWaitFor;
ARM GAS  C:\Users\zhaohe\AppData\Local\Temp\ccBd5B9N.s 			page 9


 430:Middlewares/Third_Party/FreeRTOS/Source/event_groups.c **** 					}
 431:Middlewares/Third_Party/FreeRTOS/Source/event_groups.c **** 					else
 432:Middlewares/Third_Party/FreeRTOS/Source/event_groups.c **** 					{
 433:Middlewares/Third_Party/FreeRTOS/Source/event_groups.c **** 						mtCOVERAGE_TEST_MARKER();
 434:Middlewares/Third_Party/FreeRTOS/Source/event_groups.c **** 					}
 435:Middlewares/Third_Party/FreeRTOS/Source/event_groups.c **** 				}
 436:Middlewares/Third_Party/FreeRTOS/Source/event_groups.c **** 				else
 437:Middlewares/Third_Party/FreeRTOS/Source/event_groups.c **** 				{
 438:Middlewares/Third_Party/FreeRTOS/Source/event_groups.c **** 					mtCOVERAGE_TEST_MARKER();
 439:Middlewares/Third_Party/FreeRTOS/Source/event_groups.c **** 				}
 440:Middlewares/Third_Party/FreeRTOS/Source/event_groups.c **** 				xTimeoutOccurred = pdTRUE;
 441:Middlewares/Third_Party/FreeRTOS/Source/event_groups.c **** 			}
 442:Middlewares/Third_Party/FreeRTOS/Source/event_groups.c **** 			taskEXIT_CRITICAL();
 443:Middlewares/Third_Party/FreeRTOS/Source/event_groups.c **** 		}
 444:Middlewares/Third_Party/FreeRTOS/Source/event_groups.c **** 		else
 445:Middlewares/Third_Party/FreeRTOS/Source/event_groups.c **** 		{
 446:Middlewares/Third_Party/FreeRTOS/Source/event_groups.c **** 			/* The task unblocked because the bits were set. */
 447:Middlewares/Third_Party/FreeRTOS/Source/event_groups.c **** 		}
 448:Middlewares/Third_Party/FreeRTOS/Source/event_groups.c **** 
 449:Middlewares/Third_Party/FreeRTOS/Source/event_groups.c **** 		/* The task blocked so control bits may have been set. */
 450:Middlewares/Third_Party/FreeRTOS/Source/event_groups.c **** 		uxReturn &= ~eventEVENT_BITS_CONTROL_BYTES;
 451:Middlewares/Third_Party/FreeRTOS/Source/event_groups.c **** 	}
 452:Middlewares/Third_Party/FreeRTOS/Source/event_groups.c **** 	traceEVENT_GROUP_WAIT_BITS_END( xEventGroup, uxBitsToWaitFor, xTimeoutOccurred );
 453:Middlewares/Third_Party/FreeRTOS/Source/event_groups.c **** 
 454:Middlewares/Third_Party/FreeRTOS/Source/event_groups.c **** 	/* Prevent compiler warnings when trace macros are not used. */
 455:Middlewares/Third_Party/FreeRTOS/Source/event_groups.c **** 	( void ) xTimeoutOccurred;
 456:Middlewares/Third_Party/FreeRTOS/Source/event_groups.c **** 
 457:Middlewares/Third_Party/FreeRTOS/Source/event_groups.c **** 	return uxReturn;
 458:Middlewares/Third_Party/FreeRTOS/Source/event_groups.c **** }
 459:Middlewares/Third_Party/FreeRTOS/Source/event_groups.c **** /*-----------------------------------------------------------*/
 460:Middlewares/Third_Party/FreeRTOS/Source/event_groups.c **** 
 461:Middlewares/Third_Party/FreeRTOS/Source/event_groups.c **** EventBits_t xEventGroupClearBits( EventGroupHandle_t xEventGroup, const EventBits_t uxBitsToClear )
 462:Middlewares/Third_Party/FreeRTOS/Source/event_groups.c **** {
 463:Middlewares/Third_Party/FreeRTOS/Source/event_groups.c **** EventGroup_t *pxEventBits = xEventGroup;
 464:Middlewares/Third_Party/FreeRTOS/Source/event_groups.c **** EventBits_t uxReturn;
 465:Middlewares/Third_Party/FreeRTOS/Source/event_groups.c **** 
 466:Middlewares/Third_Party/FreeRTOS/Source/event_groups.c **** 	/* Check the user is not attempting to clear the bits used by the kernel
 467:Middlewares/Third_Party/FreeRTOS/Source/event_groups.c **** 	itself. */
 468:Middlewares/Third_Party/FreeRTOS/Source/event_groups.c **** 	configASSERT( xEventGroup );
 469:Middlewares/Third_Party/FreeRTOS/Source/event_groups.c **** 	configASSERT( ( uxBitsToClear & eventEVENT_BITS_CONTROL_BYTES ) == 0 );
 470:Middlewares/Third_Party/FreeRTOS/Source/event_groups.c **** 
 471:Middlewares/Third_Party/FreeRTOS/Source/event_groups.c **** 	taskENTER_CRITICAL();
 472:Middlewares/Third_Party/FreeRTOS/Source/event_groups.c **** 	{
 473:Middlewares/Third_Party/FreeRTOS/Source/event_groups.c **** 		traceEVENT_GROUP_CLEAR_BITS( xEventGroup, uxBitsToClear );
 474:Middlewares/Third_Party/FreeRTOS/Source/event_groups.c **** 
 475:Middlewares/Third_Party/FreeRTOS/Source/event_groups.c **** 		/* The value returned is the event group value prior to the bits being
 476:Middlewares/Third_Party/FreeRTOS/Source/event_groups.c **** 		cleared. */
 477:Middlewares/Third_Party/FreeRTOS/Source/event_groups.c **** 		uxReturn = pxEventBits->uxEventBits;
 478:Middlewares/Third_Party/FreeRTOS/Source/event_groups.c **** 
 479:Middlewares/Third_Party/FreeRTOS/Source/event_groups.c **** 		/* Clear the bits. */
 480:Middlewares/Third_Party/FreeRTOS/Source/event_groups.c **** 		pxEventBits->uxEventBits &= ~uxBitsToClear;
 481:Middlewares/Third_Party/FreeRTOS/Source/event_groups.c **** 	}
 482:Middlewares/Third_Party/FreeRTOS/Source/event_groups.c **** 	taskEXIT_CRITICAL();
 483:Middlewares/Third_Party/FreeRTOS/Source/event_groups.c **** 
 484:Middlewares/Third_Party/FreeRTOS/Source/event_groups.c **** 	return uxReturn;
 485:Middlewares/Third_Party/FreeRTOS/Source/event_groups.c **** }
 486:Middlewares/Third_Party/FreeRTOS/Source/event_groups.c **** /*-----------------------------------------------------------*/
ARM GAS  C:\Users\zhaohe\AppData\Local\Temp\ccBd5B9N.s 			page 10


 487:Middlewares/Third_Party/FreeRTOS/Source/event_groups.c **** 
 488:Middlewares/Third_Party/FreeRTOS/Source/event_groups.c **** #if ( ( configUSE_TRACE_FACILITY == 1 ) && ( INCLUDE_xTimerPendFunctionCall == 1 ) && ( configUSE_T
 489:Middlewares/Third_Party/FreeRTOS/Source/event_groups.c **** 
 490:Middlewares/Third_Party/FreeRTOS/Source/event_groups.c **** 	BaseType_t xEventGroupClearBitsFromISR( EventGroupHandle_t xEventGroup, const EventBits_t uxBitsTo
 491:Middlewares/Third_Party/FreeRTOS/Source/event_groups.c **** 	{
 492:Middlewares/Third_Party/FreeRTOS/Source/event_groups.c **** 		BaseType_t xReturn;
 493:Middlewares/Third_Party/FreeRTOS/Source/event_groups.c **** 
 494:Middlewares/Third_Party/FreeRTOS/Source/event_groups.c **** 		traceEVENT_GROUP_CLEAR_BITS_FROM_ISR( xEventGroup, uxBitsToClear );
 495:Middlewares/Third_Party/FreeRTOS/Source/event_groups.c **** 		xReturn = xTimerPendFunctionCallFromISR( vEventGroupClearBitsCallback, ( void * ) xEventGroup, ( 
 496:Middlewares/Third_Party/FreeRTOS/Source/event_groups.c **** 
 497:Middlewares/Third_Party/FreeRTOS/Source/event_groups.c **** 		return xReturn;
 498:Middlewares/Third_Party/FreeRTOS/Source/event_groups.c **** 	}
 499:Middlewares/Third_Party/FreeRTOS/Source/event_groups.c **** 
 500:Middlewares/Third_Party/FreeRTOS/Source/event_groups.c **** #endif
 501:Middlewares/Third_Party/FreeRTOS/Source/event_groups.c **** /*-----------------------------------------------------------*/
 502:Middlewares/Third_Party/FreeRTOS/Source/event_groups.c **** 
 503:Middlewares/Third_Party/FreeRTOS/Source/event_groups.c **** EventBits_t xEventGroupGetBitsFromISR( EventGroupHandle_t xEventGroup )
 504:Middlewares/Third_Party/FreeRTOS/Source/event_groups.c **** {
 505:Middlewares/Third_Party/FreeRTOS/Source/event_groups.c **** UBaseType_t uxSavedInterruptStatus;
 506:Middlewares/Third_Party/FreeRTOS/Source/event_groups.c **** EventGroup_t const * const pxEventBits = xEventGroup;
 507:Middlewares/Third_Party/FreeRTOS/Source/event_groups.c **** EventBits_t uxReturn;
 508:Middlewares/Third_Party/FreeRTOS/Source/event_groups.c **** 
 509:Middlewares/Third_Party/FreeRTOS/Source/event_groups.c **** 	uxSavedInterruptStatus = portSET_INTERRUPT_MASK_FROM_ISR();
 510:Middlewares/Third_Party/FreeRTOS/Source/event_groups.c **** 	{
 511:Middlewares/Third_Party/FreeRTOS/Source/event_groups.c **** 		uxReturn = pxEventBits->uxEventBits;
 512:Middlewares/Third_Party/FreeRTOS/Source/event_groups.c **** 	}
 513:Middlewares/Third_Party/FreeRTOS/Source/event_groups.c **** 	portCLEAR_INTERRUPT_MASK_FROM_ISR( uxSavedInterruptStatus );
 514:Middlewares/Third_Party/FreeRTOS/Source/event_groups.c **** 
 515:Middlewares/Third_Party/FreeRTOS/Source/event_groups.c **** 	return uxReturn;
 516:Middlewares/Third_Party/FreeRTOS/Source/event_groups.c **** } /*lint !e818 EventGroupHandle_t is a typedef used in other functions to so can't be pointer to co
 517:Middlewares/Third_Party/FreeRTOS/Source/event_groups.c **** /*-----------------------------------------------------------*/
 518:Middlewares/Third_Party/FreeRTOS/Source/event_groups.c **** 
 519:Middlewares/Third_Party/FreeRTOS/Source/event_groups.c **** EventBits_t xEventGroupSetBits( EventGroupHandle_t xEventGroup, const EventBits_t uxBitsToSet )
 520:Middlewares/Third_Party/FreeRTOS/Source/event_groups.c **** {
 521:Middlewares/Third_Party/FreeRTOS/Source/event_groups.c **** ListItem_t *pxListItem, *pxNext;
 522:Middlewares/Third_Party/FreeRTOS/Source/event_groups.c **** ListItem_t const *pxListEnd;
 523:Middlewares/Third_Party/FreeRTOS/Source/event_groups.c **** List_t const * pxList;
 524:Middlewares/Third_Party/FreeRTOS/Source/event_groups.c **** EventBits_t uxBitsToClear = 0, uxBitsWaitedFor, uxControlBits;
 525:Middlewares/Third_Party/FreeRTOS/Source/event_groups.c **** EventGroup_t *pxEventBits = xEventGroup;
 526:Middlewares/Third_Party/FreeRTOS/Source/event_groups.c **** BaseType_t xMatchFound = pdFALSE;
 527:Middlewares/Third_Party/FreeRTOS/Source/event_groups.c **** 
 528:Middlewares/Third_Party/FreeRTOS/Source/event_groups.c **** 	/* Check the user is not attempting to set the bits used by the kernel
 529:Middlewares/Third_Party/FreeRTOS/Source/event_groups.c **** 	itself. */
 530:Middlewares/Third_Party/FreeRTOS/Source/event_groups.c **** 	configASSERT( xEventGroup );
 531:Middlewares/Third_Party/FreeRTOS/Source/event_groups.c **** 	configASSERT( ( uxBitsToSet & eventEVENT_BITS_CONTROL_BYTES ) == 0 );
 532:Middlewares/Third_Party/FreeRTOS/Source/event_groups.c **** 
 533:Middlewares/Third_Party/FreeRTOS/Source/event_groups.c **** 	pxList = &( pxEventBits->xTasksWaitingForBits );
 534:Middlewares/Third_Party/FreeRTOS/Source/event_groups.c **** 	pxListEnd = listGET_END_MARKER( pxList ); /*lint !e826 !e740 !e9087 The mini list structure is use
 535:Middlewares/Third_Party/FreeRTOS/Source/event_groups.c **** 	vTaskSuspendAll();
 536:Middlewares/Third_Party/FreeRTOS/Source/event_groups.c **** 	{
 537:Middlewares/Third_Party/FreeRTOS/Source/event_groups.c **** 		traceEVENT_GROUP_SET_BITS( xEventGroup, uxBitsToSet );
 538:Middlewares/Third_Party/FreeRTOS/Source/event_groups.c **** 
 539:Middlewares/Third_Party/FreeRTOS/Source/event_groups.c **** 		pxListItem = listGET_HEAD_ENTRY( pxList );
 540:Middlewares/Third_Party/FreeRTOS/Source/event_groups.c **** 
 541:Middlewares/Third_Party/FreeRTOS/Source/event_groups.c **** 		/* Set the bits. */
 542:Middlewares/Third_Party/FreeRTOS/Source/event_groups.c **** 		pxEventBits->uxEventBits |= uxBitsToSet;
 543:Middlewares/Third_Party/FreeRTOS/Source/event_groups.c **** 
ARM GAS  C:\Users\zhaohe\AppData\Local\Temp\ccBd5B9N.s 			page 11


 544:Middlewares/Third_Party/FreeRTOS/Source/event_groups.c **** 		/* See if the new bit value should unblock any tasks. */
 545:Middlewares/Third_Party/FreeRTOS/Source/event_groups.c **** 		while( pxListItem != pxListEnd )
 546:Middlewares/Third_Party/FreeRTOS/Source/event_groups.c **** 		{
 547:Middlewares/Third_Party/FreeRTOS/Source/event_groups.c **** 			pxNext = listGET_NEXT( pxListItem );
 548:Middlewares/Third_Party/FreeRTOS/Source/event_groups.c **** 			uxBitsWaitedFor = listGET_LIST_ITEM_VALUE( pxListItem );
 549:Middlewares/Third_Party/FreeRTOS/Source/event_groups.c **** 			xMatchFound = pdFALSE;
 550:Middlewares/Third_Party/FreeRTOS/Source/event_groups.c **** 
 551:Middlewares/Third_Party/FreeRTOS/Source/event_groups.c **** 			/* Split the bits waited for from the control bits. */
 552:Middlewares/Third_Party/FreeRTOS/Source/event_groups.c **** 			uxControlBits = uxBitsWaitedFor & eventEVENT_BITS_CONTROL_BYTES;
 553:Middlewares/Third_Party/FreeRTOS/Source/event_groups.c **** 			uxBitsWaitedFor &= ~eventEVENT_BITS_CONTROL_BYTES;
 554:Middlewares/Third_Party/FreeRTOS/Source/event_groups.c **** 
 555:Middlewares/Third_Party/FreeRTOS/Source/event_groups.c **** 			if( ( uxControlBits & eventWAIT_FOR_ALL_BITS ) == ( EventBits_t ) 0 )
 556:Middlewares/Third_Party/FreeRTOS/Source/event_groups.c **** 			{
 557:Middlewares/Third_Party/FreeRTOS/Source/event_groups.c **** 				/* Just looking for single bit being set. */
 558:Middlewares/Third_Party/FreeRTOS/Source/event_groups.c **** 				if( ( uxBitsWaitedFor & pxEventBits->uxEventBits ) != ( EventBits_t ) 0 )
 559:Middlewares/Third_Party/FreeRTOS/Source/event_groups.c **** 				{
 560:Middlewares/Third_Party/FreeRTOS/Source/event_groups.c **** 					xMatchFound = pdTRUE;
 561:Middlewares/Third_Party/FreeRTOS/Source/event_groups.c **** 				}
 562:Middlewares/Third_Party/FreeRTOS/Source/event_groups.c **** 				else
 563:Middlewares/Third_Party/FreeRTOS/Source/event_groups.c **** 				{
 564:Middlewares/Third_Party/FreeRTOS/Source/event_groups.c **** 					mtCOVERAGE_TEST_MARKER();
 565:Middlewares/Third_Party/FreeRTOS/Source/event_groups.c **** 				}
 566:Middlewares/Third_Party/FreeRTOS/Source/event_groups.c **** 			}
 567:Middlewares/Third_Party/FreeRTOS/Source/event_groups.c **** 			else if( ( uxBitsWaitedFor & pxEventBits->uxEventBits ) == uxBitsWaitedFor )
 568:Middlewares/Third_Party/FreeRTOS/Source/event_groups.c **** 			{
 569:Middlewares/Third_Party/FreeRTOS/Source/event_groups.c **** 				/* All bits are set. */
 570:Middlewares/Third_Party/FreeRTOS/Source/event_groups.c **** 				xMatchFound = pdTRUE;
 571:Middlewares/Third_Party/FreeRTOS/Source/event_groups.c **** 			}
 572:Middlewares/Third_Party/FreeRTOS/Source/event_groups.c **** 			else
 573:Middlewares/Third_Party/FreeRTOS/Source/event_groups.c **** 			{
 574:Middlewares/Third_Party/FreeRTOS/Source/event_groups.c **** 				/* Need all bits to be set, but not all the bits were set. */
 575:Middlewares/Third_Party/FreeRTOS/Source/event_groups.c **** 			}
 576:Middlewares/Third_Party/FreeRTOS/Source/event_groups.c **** 
 577:Middlewares/Third_Party/FreeRTOS/Source/event_groups.c **** 			if( xMatchFound != pdFALSE )
 578:Middlewares/Third_Party/FreeRTOS/Source/event_groups.c **** 			{
 579:Middlewares/Third_Party/FreeRTOS/Source/event_groups.c **** 				/* The bits match.  Should the bits be cleared on exit? */
 580:Middlewares/Third_Party/FreeRTOS/Source/event_groups.c **** 				if( ( uxControlBits & eventCLEAR_EVENTS_ON_EXIT_BIT ) != ( EventBits_t ) 0 )
 581:Middlewares/Third_Party/FreeRTOS/Source/event_groups.c **** 				{
 582:Middlewares/Third_Party/FreeRTOS/Source/event_groups.c **** 					uxBitsToClear |= uxBitsWaitedFor;
 583:Middlewares/Third_Party/FreeRTOS/Source/event_groups.c **** 				}
 584:Middlewares/Third_Party/FreeRTOS/Source/event_groups.c **** 				else
 585:Middlewares/Third_Party/FreeRTOS/Source/event_groups.c **** 				{
 586:Middlewares/Third_Party/FreeRTOS/Source/event_groups.c **** 					mtCOVERAGE_TEST_MARKER();
 587:Middlewares/Third_Party/FreeRTOS/Source/event_groups.c **** 				}
 588:Middlewares/Third_Party/FreeRTOS/Source/event_groups.c **** 
 589:Middlewares/Third_Party/FreeRTOS/Source/event_groups.c **** 				/* Store the actual event flag value in the task's event list
 590:Middlewares/Third_Party/FreeRTOS/Source/event_groups.c **** 				item before removing the task from the event list.  The
 591:Middlewares/Third_Party/FreeRTOS/Source/event_groups.c **** 				eventUNBLOCKED_DUE_TO_BIT_SET bit is set so the task knows
 592:Middlewares/Third_Party/FreeRTOS/Source/event_groups.c **** 				that is was unblocked due to its required bits matching, rather
 593:Middlewares/Third_Party/FreeRTOS/Source/event_groups.c **** 				than because it timed out. */
 594:Middlewares/Third_Party/FreeRTOS/Source/event_groups.c **** 				vTaskRemoveFromUnorderedEventList( pxListItem, pxEventBits->uxEventBits | eventUNBLOCKED_DUE_TO
 595:Middlewares/Third_Party/FreeRTOS/Source/event_groups.c **** 			}
 596:Middlewares/Third_Party/FreeRTOS/Source/event_groups.c **** 
 597:Middlewares/Third_Party/FreeRTOS/Source/event_groups.c **** 			/* Move onto the next list item.  Note pxListItem->pxNext is not
 598:Middlewares/Third_Party/FreeRTOS/Source/event_groups.c **** 			used here as the list item may have been removed from the event list
 599:Middlewares/Third_Party/FreeRTOS/Source/event_groups.c **** 			and inserted into the ready/pending reading list. */
 600:Middlewares/Third_Party/FreeRTOS/Source/event_groups.c **** 			pxListItem = pxNext;
ARM GAS  C:\Users\zhaohe\AppData\Local\Temp\ccBd5B9N.s 			page 12


 601:Middlewares/Third_Party/FreeRTOS/Source/event_groups.c **** 		}
 602:Middlewares/Third_Party/FreeRTOS/Source/event_groups.c **** 
 603:Middlewares/Third_Party/FreeRTOS/Source/event_groups.c **** 		/* Clear any bits that matched when the eventCLEAR_EVENTS_ON_EXIT_BIT
 604:Middlewares/Third_Party/FreeRTOS/Source/event_groups.c **** 		bit was set in the control word. */
 605:Middlewares/Third_Party/FreeRTOS/Source/event_groups.c **** 		pxEventBits->uxEventBits &= ~uxBitsToClear;
 606:Middlewares/Third_Party/FreeRTOS/Source/event_groups.c **** 	}
 607:Middlewares/Third_Party/FreeRTOS/Source/event_groups.c **** 	( void ) xTaskResumeAll();
 608:Middlewares/Third_Party/FreeRTOS/Source/event_groups.c **** 
 609:Middlewares/Third_Party/FreeRTOS/Source/event_groups.c **** 	return pxEventBits->uxEventBits;
 610:Middlewares/Third_Party/FreeRTOS/Source/event_groups.c **** }
 611:Middlewares/Third_Party/FreeRTOS/Source/event_groups.c **** /*-----------------------------------------------------------*/
 612:Middlewares/Third_Party/FreeRTOS/Source/event_groups.c **** 
 613:Middlewares/Third_Party/FreeRTOS/Source/event_groups.c **** void vEventGroupDelete( EventGroupHandle_t xEventGroup )
 614:Middlewares/Third_Party/FreeRTOS/Source/event_groups.c **** {
 615:Middlewares/Third_Party/FreeRTOS/Source/event_groups.c **** EventGroup_t *pxEventBits = xEventGroup;
 616:Middlewares/Third_Party/FreeRTOS/Source/event_groups.c **** const List_t *pxTasksWaitingForBits = &( pxEventBits->xTasksWaitingForBits );
 617:Middlewares/Third_Party/FreeRTOS/Source/event_groups.c **** 
 618:Middlewares/Third_Party/FreeRTOS/Source/event_groups.c **** 	vTaskSuspendAll();
 619:Middlewares/Third_Party/FreeRTOS/Source/event_groups.c **** 	{
 620:Middlewares/Third_Party/FreeRTOS/Source/event_groups.c **** 		traceEVENT_GROUP_DELETE( xEventGroup );
 621:Middlewares/Third_Party/FreeRTOS/Source/event_groups.c **** 
 622:Middlewares/Third_Party/FreeRTOS/Source/event_groups.c **** 		while( listCURRENT_LIST_LENGTH( pxTasksWaitingForBits ) > ( UBaseType_t ) 0 )
 623:Middlewares/Third_Party/FreeRTOS/Source/event_groups.c **** 		{
 624:Middlewares/Third_Party/FreeRTOS/Source/event_groups.c **** 			/* Unblock the task, returning 0 as the event list is being deleted
 625:Middlewares/Third_Party/FreeRTOS/Source/event_groups.c **** 			and cannot therefore have any bits set. */
 626:Middlewares/Third_Party/FreeRTOS/Source/event_groups.c **** 			configASSERT( pxTasksWaitingForBits->xListEnd.pxNext != ( const ListItem_t * ) &( pxTasksWaiting
 627:Middlewares/Third_Party/FreeRTOS/Source/event_groups.c **** 			vTaskRemoveFromUnorderedEventList( pxTasksWaitingForBits->xListEnd.pxNext, eventUNBLOCKED_DUE_TO
 628:Middlewares/Third_Party/FreeRTOS/Source/event_groups.c **** 		}
 629:Middlewares/Third_Party/FreeRTOS/Source/event_groups.c **** 
 630:Middlewares/Third_Party/FreeRTOS/Source/event_groups.c **** 		#if( ( configSUPPORT_DYNAMIC_ALLOCATION == 1 ) && ( configSUPPORT_STATIC_ALLOCATION == 0 ) )
 631:Middlewares/Third_Party/FreeRTOS/Source/event_groups.c **** 		{
 632:Middlewares/Third_Party/FreeRTOS/Source/event_groups.c **** 			/* The event group can only have been allocated dynamically - free
 633:Middlewares/Third_Party/FreeRTOS/Source/event_groups.c **** 			it again. */
 634:Middlewares/Third_Party/FreeRTOS/Source/event_groups.c **** 			vPortFree( pxEventBits );
 635:Middlewares/Third_Party/FreeRTOS/Source/event_groups.c **** 		}
 636:Middlewares/Third_Party/FreeRTOS/Source/event_groups.c **** 		#elif( ( configSUPPORT_DYNAMIC_ALLOCATION == 1 ) && ( configSUPPORT_STATIC_ALLOCATION == 1 ) )
 637:Middlewares/Third_Party/FreeRTOS/Source/event_groups.c **** 		{
 638:Middlewares/Third_Party/FreeRTOS/Source/event_groups.c **** 			/* The event group could have been allocated statically or
 639:Middlewares/Third_Party/FreeRTOS/Source/event_groups.c **** 			dynamically, so check before attempting to free the memory. */
 640:Middlewares/Third_Party/FreeRTOS/Source/event_groups.c **** 			if( pxEventBits->ucStaticallyAllocated == ( uint8_t ) pdFALSE )
 641:Middlewares/Third_Party/FreeRTOS/Source/event_groups.c **** 			{
 642:Middlewares/Third_Party/FreeRTOS/Source/event_groups.c **** 				vPortFree( pxEventBits );
 643:Middlewares/Third_Party/FreeRTOS/Source/event_groups.c **** 			}
 644:Middlewares/Third_Party/FreeRTOS/Source/event_groups.c **** 			else
 645:Middlewares/Third_Party/FreeRTOS/Source/event_groups.c **** 			{
 646:Middlewares/Third_Party/FreeRTOS/Source/event_groups.c **** 				mtCOVERAGE_TEST_MARKER();
 647:Middlewares/Third_Party/FreeRTOS/Source/event_groups.c **** 			}
 648:Middlewares/Third_Party/FreeRTOS/Source/event_groups.c **** 		}
 649:Middlewares/Third_Party/FreeRTOS/Source/event_groups.c **** 		#endif /* configSUPPORT_DYNAMIC_ALLOCATION */
 650:Middlewares/Third_Party/FreeRTOS/Source/event_groups.c **** 	}
 651:Middlewares/Third_Party/FreeRTOS/Source/event_groups.c **** 	( void ) xTaskResumeAll();
 652:Middlewares/Third_Party/FreeRTOS/Source/event_groups.c **** }
 653:Middlewares/Third_Party/FreeRTOS/Source/event_groups.c **** /*-----------------------------------------------------------*/
 654:Middlewares/Third_Party/FreeRTOS/Source/event_groups.c **** 
 655:Middlewares/Third_Party/FreeRTOS/Source/event_groups.c **** /* For internal use only - execute a 'set bits' command that was pended from
 656:Middlewares/Third_Party/FreeRTOS/Source/event_groups.c **** an interrupt. */
 657:Middlewares/Third_Party/FreeRTOS/Source/event_groups.c **** void vEventGroupSetBitsCallback( void *pvEventGroup, const uint32_t ulBitsToSet )
ARM GAS  C:\Users\zhaohe\AppData\Local\Temp\ccBd5B9N.s 			page 13


 658:Middlewares/Third_Party/FreeRTOS/Source/event_groups.c **** {
 659:Middlewares/Third_Party/FreeRTOS/Source/event_groups.c **** 	( void ) xEventGroupSetBits( pvEventGroup, ( EventBits_t ) ulBitsToSet ); /*lint !e9079 Can't avoi
 660:Middlewares/Third_Party/FreeRTOS/Source/event_groups.c **** }
 661:Middlewares/Third_Party/FreeRTOS/Source/event_groups.c **** /*-----------------------------------------------------------*/
 662:Middlewares/Third_Party/FreeRTOS/Source/event_groups.c **** 
 663:Middlewares/Third_Party/FreeRTOS/Source/event_groups.c **** /* For internal use only - execute a 'clear bits' command that was pended from
 664:Middlewares/Third_Party/FreeRTOS/Source/event_groups.c **** an interrupt. */
 665:Middlewares/Third_Party/FreeRTOS/Source/event_groups.c **** void vEventGroupClearBitsCallback( void *pvEventGroup, const uint32_t ulBitsToClear )
 666:Middlewares/Third_Party/FreeRTOS/Source/event_groups.c **** {
 667:Middlewares/Third_Party/FreeRTOS/Source/event_groups.c **** 	( void ) xEventGroupClearBits( pvEventGroup, ( EventBits_t ) ulBitsToClear ); /*lint !e9079 Can't 
 668:Middlewares/Third_Party/FreeRTOS/Source/event_groups.c **** }
 669:Middlewares/Third_Party/FreeRTOS/Source/event_groups.c **** /*-----------------------------------------------------------*/
 670:Middlewares/Third_Party/FreeRTOS/Source/event_groups.c **** 
 671:Middlewares/Third_Party/FreeRTOS/Source/event_groups.c **** static BaseType_t prvTestWaitCondition( const EventBits_t uxCurrentEventBits, const EventBits_t uxB
 672:Middlewares/Third_Party/FreeRTOS/Source/event_groups.c **** {
  29              		.loc 1 672 1 view -0
  30              		.cfi_startproc
  31              		@ args = 0, pretend = 0, frame = 0
  32              		@ frame_needed = 0, uses_anonymous_args = 0
  33              		@ link register save eliminated.
 673:Middlewares/Third_Party/FreeRTOS/Source/event_groups.c **** BaseType_t xWaitConditionMet = pdFALSE;
  34              		.loc 1 673 1 view .LVU1
 674:Middlewares/Third_Party/FreeRTOS/Source/event_groups.c **** 
 675:Middlewares/Third_Party/FreeRTOS/Source/event_groups.c **** 	if( xWaitForAllBits == pdFALSE )
  35              		.loc 1 675 2 view .LVU2
  36              		.loc 1 675 4 is_stmt 0 view .LVU3
  37 0000 1AB9     		cbnz	r2, .L2
 676:Middlewares/Third_Party/FreeRTOS/Source/event_groups.c **** 	{
 677:Middlewares/Third_Party/FreeRTOS/Source/event_groups.c **** 		/* Task only has to wait for one bit within uxBitsToWaitFor to be
 678:Middlewares/Third_Party/FreeRTOS/Source/event_groups.c **** 		set.  Is one already set? */
 679:Middlewares/Third_Party/FreeRTOS/Source/event_groups.c **** 		if( ( uxCurrentEventBits & uxBitsToWaitFor ) != ( EventBits_t ) 0 )
  38              		.loc 1 679 3 is_stmt 1 view .LVU4
  39              		.loc 1 679 5 is_stmt 0 view .LVU5
  40 0002 0842     		tst	r0, r1
  41 0004 06D1     		bne	.L4
 673:Middlewares/Third_Party/FreeRTOS/Source/event_groups.c **** 
  42              		.loc 1 673 12 view .LVU6
  43 0006 1046     		mov	r0, r2
  44              	.LVL1:
 673:Middlewares/Third_Party/FreeRTOS/Source/event_groups.c **** 
  45              		.loc 1 673 12 view .LVU7
  46 0008 7047     		bx	lr
  47              	.LVL2:
  48              	.L2:
 680:Middlewares/Third_Party/FreeRTOS/Source/event_groups.c **** 		{
 681:Middlewares/Third_Party/FreeRTOS/Source/event_groups.c **** 			xWaitConditionMet = pdTRUE;
 682:Middlewares/Third_Party/FreeRTOS/Source/event_groups.c **** 		}
 683:Middlewares/Third_Party/FreeRTOS/Source/event_groups.c **** 		else
 684:Middlewares/Third_Party/FreeRTOS/Source/event_groups.c **** 		{
 685:Middlewares/Third_Party/FreeRTOS/Source/event_groups.c **** 			mtCOVERAGE_TEST_MARKER();
 686:Middlewares/Third_Party/FreeRTOS/Source/event_groups.c **** 		}
 687:Middlewares/Third_Party/FreeRTOS/Source/event_groups.c **** 	}
 688:Middlewares/Third_Party/FreeRTOS/Source/event_groups.c **** 	else
 689:Middlewares/Third_Party/FreeRTOS/Source/event_groups.c **** 	{
 690:Middlewares/Third_Party/FreeRTOS/Source/event_groups.c **** 		/* Task has to wait for all the bits in uxBitsToWaitFor to be set.
 691:Middlewares/Third_Party/FreeRTOS/Source/event_groups.c **** 		Are they set already? */
 692:Middlewares/Third_Party/FreeRTOS/Source/event_groups.c **** 		if( ( uxCurrentEventBits & uxBitsToWaitFor ) == uxBitsToWaitFor )
ARM GAS  C:\Users\zhaohe\AppData\Local\Temp\ccBd5B9N.s 			page 14


  49              		.loc 1 692 3 is_stmt 1 view .LVU8
  50              		.loc 1 692 5 is_stmt 0 view .LVU9
  51 000a 31EA0003 		bics	r3, r1, r0
  52 000e 03D0     		beq	.L5
 673:Middlewares/Third_Party/FreeRTOS/Source/event_groups.c **** 
  53              		.loc 1 673 12 view .LVU10
  54 0010 0020     		movs	r0, #0
  55              	.LVL3:
 673:Middlewares/Third_Party/FreeRTOS/Source/event_groups.c **** 
  56              		.loc 1 673 12 view .LVU11
  57 0012 7047     		bx	lr
  58              	.LVL4:
  59              	.L4:
 681:Middlewares/Third_Party/FreeRTOS/Source/event_groups.c **** 		}
  60              		.loc 1 681 22 view .LVU12
  61 0014 0120     		movs	r0, #1
  62              	.LVL5:
 681:Middlewares/Third_Party/FreeRTOS/Source/event_groups.c **** 		}
  63              		.loc 1 681 22 view .LVU13
  64 0016 7047     		bx	lr
  65              	.LVL6:
  66              	.L5:
 693:Middlewares/Third_Party/FreeRTOS/Source/event_groups.c **** 		{
 694:Middlewares/Third_Party/FreeRTOS/Source/event_groups.c **** 			xWaitConditionMet = pdTRUE;
  67              		.loc 1 694 22 view .LVU14
  68 0018 0120     		movs	r0, #1
  69              	.LVL7:
 695:Middlewares/Third_Party/FreeRTOS/Source/event_groups.c **** 		}
 696:Middlewares/Third_Party/FreeRTOS/Source/event_groups.c **** 		else
 697:Middlewares/Third_Party/FreeRTOS/Source/event_groups.c **** 		{
 698:Middlewares/Third_Party/FreeRTOS/Source/event_groups.c **** 			mtCOVERAGE_TEST_MARKER();
  70              		.loc 1 698 28 is_stmt 1 view .LVU15
 699:Middlewares/Third_Party/FreeRTOS/Source/event_groups.c **** 		}
 700:Middlewares/Third_Party/FreeRTOS/Source/event_groups.c **** 	}
 701:Middlewares/Third_Party/FreeRTOS/Source/event_groups.c **** 
 702:Middlewares/Third_Party/FreeRTOS/Source/event_groups.c **** 	return xWaitConditionMet;
  71              		.loc 1 702 2 view .LVU16
 703:Middlewares/Third_Party/FreeRTOS/Source/event_groups.c **** }
  72              		.loc 1 703 1 is_stmt 0 view .LVU17
  73 001a 7047     		bx	lr
  74              		.cfi_endproc
  75              	.LFE15:
  77              		.section	.text.xEventGroupCreateStatic,"ax",%progbits
  78              		.align	1
  79              		.global	xEventGroupCreateStatic
  80              		.syntax unified
  81              		.thumb
  82              		.thumb_func
  84              	xEventGroupCreateStatic:
  85              	.LVL8:
  86              	.LFB5:
  94:Middlewares/Third_Party/FreeRTOS/Source/event_groups.c **** 	EventGroup_t *pxEventBits;
  87              		.loc 1 94 2 is_stmt 1 view -0
  88              		.cfi_startproc
  89              		@ args = 0, pretend = 0, frame = 8
  90              		@ frame_needed = 0, uses_anonymous_args = 0
  95:Middlewares/Third_Party/FreeRTOS/Source/event_groups.c **** 
ARM GAS  C:\Users\zhaohe\AppData\Local\Temp\ccBd5B9N.s 			page 15


  91              		.loc 1 95 2 view .LVU19
  98:Middlewares/Third_Party/FreeRTOS/Source/event_groups.c **** 
  92              		.loc 1 98 3 view .LVU20
  93 0000 80B1     		cbz	r0, .L13
  94:Middlewares/Third_Party/FreeRTOS/Source/event_groups.c **** 	EventGroup_t *pxEventBits;
  94              		.loc 1 94 2 is_stmt 0 discriminator 2 view .LVU21
  95 0002 10B5     		push	{r4, lr}
  96              	.LCFI0:
  97              		.cfi_def_cfa_offset 8
  98              		.cfi_offset 4, -8
  99              		.cfi_offset 14, -4
 100 0004 82B0     		sub	sp, sp, #8
 101              	.LCFI1:
 102              		.cfi_def_cfa_offset 16
 103 0006 0446     		mov	r4, r0
  98:Middlewares/Third_Party/FreeRTOS/Source/event_groups.c **** 
 104              		.loc 1 98 37 is_stmt 1 discriminator 2 view .LVU22
 105              	.LBB36:
 105:Middlewares/Third_Party/FreeRTOS/Source/event_groups.c **** 			configASSERT( xSize == sizeof( EventGroup_t ) );
 106              		.loc 1 105 4 discriminator 2 view .LVU23
 105:Middlewares/Third_Party/FreeRTOS/Source/event_groups.c **** 			configASSERT( xSize == sizeof( EventGroup_t ) );
 107              		.loc 1 105 20 is_stmt 0 discriminator 2 view .LVU24
 108 0008 1C23     		movs	r3, #28
 109 000a 0193     		str	r3, [sp, #4]
 106:Middlewares/Third_Party/FreeRTOS/Source/event_groups.c **** 		} /*lint !e529 xSize is referenced if configASSERT() is defined. */
 110              		.loc 1 106 4 is_stmt 1 discriminator 2 view .LVU25
 111 000c 019B     		ldr	r3, [sp, #4]
 112 000e 1C2B     		cmp	r3, #28
 113 0010 11D0     		beq	.L9
 106:Middlewares/Third_Party/FreeRTOS/Source/event_groups.c **** 		} /*lint !e529 xSize is referenced if configASSERT() is defined. */
 114              		.loc 1 106 4 view .LVU26
 115              	.LBB37:
 116              	.LBI37:
 117              		.file 2 "Middlewares/Third_Party/FreeRTOS/Source/portable/GCC/ARM_CM4F/portmacro.h"
   1:Middlewares/Third_Party/FreeRTOS/Source/portable/GCC/ARM_CM4F/portmacro.h **** /*
   2:Middlewares/Third_Party/FreeRTOS/Source/portable/GCC/ARM_CM4F/portmacro.h ****  * FreeRTOS Kernel V10.3.1
   3:Middlewares/Third_Party/FreeRTOS/Source/portable/GCC/ARM_CM4F/portmacro.h ****  * Copyright (C) 2020 Amazon.com, Inc. or its affiliates.  All Rights Reserved.
   4:Middlewares/Third_Party/FreeRTOS/Source/portable/GCC/ARM_CM4F/portmacro.h ****  *
   5:Middlewares/Third_Party/FreeRTOS/Source/portable/GCC/ARM_CM4F/portmacro.h ****  * Permission is hereby granted, free of charge, to any person obtaining a copy of
   6:Middlewares/Third_Party/FreeRTOS/Source/portable/GCC/ARM_CM4F/portmacro.h ****  * this software and associated documentation files (the "Software"), to deal in
   7:Middlewares/Third_Party/FreeRTOS/Source/portable/GCC/ARM_CM4F/portmacro.h ****  * the Software without restriction, including without limitation the rights to
   8:Middlewares/Third_Party/FreeRTOS/Source/portable/GCC/ARM_CM4F/portmacro.h ****  * use, copy, modify, merge, publish, distribute, sublicense, and/or sell copies of
   9:Middlewares/Third_Party/FreeRTOS/Source/portable/GCC/ARM_CM4F/portmacro.h ****  * the Software, and to permit persons to whom the Software is furnished to do so,
  10:Middlewares/Third_Party/FreeRTOS/Source/portable/GCC/ARM_CM4F/portmacro.h ****  * subject to the following conditions:
  11:Middlewares/Third_Party/FreeRTOS/Source/portable/GCC/ARM_CM4F/portmacro.h ****  *
  12:Middlewares/Third_Party/FreeRTOS/Source/portable/GCC/ARM_CM4F/portmacro.h ****  * The above copyright notice and this permission notice shall be included in all
  13:Middlewares/Third_Party/FreeRTOS/Source/portable/GCC/ARM_CM4F/portmacro.h ****  * copies or substantial portions of the Software.
  14:Middlewares/Third_Party/FreeRTOS/Source/portable/GCC/ARM_CM4F/portmacro.h ****  *
  15:Middlewares/Third_Party/FreeRTOS/Source/portable/GCC/ARM_CM4F/portmacro.h ****  * THE SOFTWARE IS PROVIDED "AS IS", WITHOUT WARRANTY OF ANY KIND, EXPRESS OR
  16:Middlewares/Third_Party/FreeRTOS/Source/portable/GCC/ARM_CM4F/portmacro.h ****  * IMPLIED, INCLUDING BUT NOT LIMITED TO THE WARRANTIES OF MERCHANTABILITY, FITNESS
  17:Middlewares/Third_Party/FreeRTOS/Source/portable/GCC/ARM_CM4F/portmacro.h ****  * FOR A PARTICULAR PURPOSE AND NONINFRINGEMENT. IN NO EVENT SHALL THE AUTHORS OR
  18:Middlewares/Third_Party/FreeRTOS/Source/portable/GCC/ARM_CM4F/portmacro.h ****  * COPYRIGHT HOLDERS BE LIABLE FOR ANY CLAIM, DAMAGES OR OTHER LIABILITY, WHETHER
  19:Middlewares/Third_Party/FreeRTOS/Source/portable/GCC/ARM_CM4F/portmacro.h ****  * IN AN ACTION OF CONTRACT, TORT OR OTHERWISE, ARISING FROM, OUT OF OR IN
  20:Middlewares/Third_Party/FreeRTOS/Source/portable/GCC/ARM_CM4F/portmacro.h ****  * CONNECTION WITH THE SOFTWARE OR THE USE OR OTHER DEALINGS IN THE SOFTWARE.
  21:Middlewares/Third_Party/FreeRTOS/Source/portable/GCC/ARM_CM4F/portmacro.h ****  *
  22:Middlewares/Third_Party/FreeRTOS/Source/portable/GCC/ARM_CM4F/portmacro.h ****  * http://www.FreeRTOS.org
  23:Middlewares/Third_Party/FreeRTOS/Source/portable/GCC/ARM_CM4F/portmacro.h ****  * http://aws.amazon.com/freertos
ARM GAS  C:\Users\zhaohe\AppData\Local\Temp\ccBd5B9N.s 			page 16


  24:Middlewares/Third_Party/FreeRTOS/Source/portable/GCC/ARM_CM4F/portmacro.h ****  *
  25:Middlewares/Third_Party/FreeRTOS/Source/portable/GCC/ARM_CM4F/portmacro.h ****  * 1 tab == 4 spaces!
  26:Middlewares/Third_Party/FreeRTOS/Source/portable/GCC/ARM_CM4F/portmacro.h ****  */
  27:Middlewares/Third_Party/FreeRTOS/Source/portable/GCC/ARM_CM4F/portmacro.h **** 
  28:Middlewares/Third_Party/FreeRTOS/Source/portable/GCC/ARM_CM4F/portmacro.h **** 
  29:Middlewares/Third_Party/FreeRTOS/Source/portable/GCC/ARM_CM4F/portmacro.h **** #ifndef PORTMACRO_H
  30:Middlewares/Third_Party/FreeRTOS/Source/portable/GCC/ARM_CM4F/portmacro.h **** #define PORTMACRO_H
  31:Middlewares/Third_Party/FreeRTOS/Source/portable/GCC/ARM_CM4F/portmacro.h **** 
  32:Middlewares/Third_Party/FreeRTOS/Source/portable/GCC/ARM_CM4F/portmacro.h **** #ifdef __cplusplus
  33:Middlewares/Third_Party/FreeRTOS/Source/portable/GCC/ARM_CM4F/portmacro.h **** extern "C" {
  34:Middlewares/Third_Party/FreeRTOS/Source/portable/GCC/ARM_CM4F/portmacro.h **** #endif
  35:Middlewares/Third_Party/FreeRTOS/Source/portable/GCC/ARM_CM4F/portmacro.h **** 
  36:Middlewares/Third_Party/FreeRTOS/Source/portable/GCC/ARM_CM4F/portmacro.h **** /*-----------------------------------------------------------
  37:Middlewares/Third_Party/FreeRTOS/Source/portable/GCC/ARM_CM4F/portmacro.h ****  * Port specific definitions.
  38:Middlewares/Third_Party/FreeRTOS/Source/portable/GCC/ARM_CM4F/portmacro.h ****  *
  39:Middlewares/Third_Party/FreeRTOS/Source/portable/GCC/ARM_CM4F/portmacro.h ****  * The settings in this file configure FreeRTOS correctly for the
  40:Middlewares/Third_Party/FreeRTOS/Source/portable/GCC/ARM_CM4F/portmacro.h ****  * given hardware and compiler.
  41:Middlewares/Third_Party/FreeRTOS/Source/portable/GCC/ARM_CM4F/portmacro.h ****  *
  42:Middlewares/Third_Party/FreeRTOS/Source/portable/GCC/ARM_CM4F/portmacro.h ****  * These settings should not be altered.
  43:Middlewares/Third_Party/FreeRTOS/Source/portable/GCC/ARM_CM4F/portmacro.h ****  *-----------------------------------------------------------
  44:Middlewares/Third_Party/FreeRTOS/Source/portable/GCC/ARM_CM4F/portmacro.h ****  */
  45:Middlewares/Third_Party/FreeRTOS/Source/portable/GCC/ARM_CM4F/portmacro.h **** 
  46:Middlewares/Third_Party/FreeRTOS/Source/portable/GCC/ARM_CM4F/portmacro.h **** /* Type definitions. */
  47:Middlewares/Third_Party/FreeRTOS/Source/portable/GCC/ARM_CM4F/portmacro.h **** #define portCHAR		char
  48:Middlewares/Third_Party/FreeRTOS/Source/portable/GCC/ARM_CM4F/portmacro.h **** #define portFLOAT		float
  49:Middlewares/Third_Party/FreeRTOS/Source/portable/GCC/ARM_CM4F/portmacro.h **** #define portDOUBLE		double
  50:Middlewares/Third_Party/FreeRTOS/Source/portable/GCC/ARM_CM4F/portmacro.h **** #define portLONG		long
  51:Middlewares/Third_Party/FreeRTOS/Source/portable/GCC/ARM_CM4F/portmacro.h **** #define portSHORT		short
  52:Middlewares/Third_Party/FreeRTOS/Source/portable/GCC/ARM_CM4F/portmacro.h **** #define portSTACK_TYPE	uint32_t
  53:Middlewares/Third_Party/FreeRTOS/Source/portable/GCC/ARM_CM4F/portmacro.h **** #define portBASE_TYPE	long
  54:Middlewares/Third_Party/FreeRTOS/Source/portable/GCC/ARM_CM4F/portmacro.h **** 
  55:Middlewares/Third_Party/FreeRTOS/Source/portable/GCC/ARM_CM4F/portmacro.h **** typedef portSTACK_TYPE StackType_t;
  56:Middlewares/Third_Party/FreeRTOS/Source/portable/GCC/ARM_CM4F/portmacro.h **** typedef long BaseType_t;
  57:Middlewares/Third_Party/FreeRTOS/Source/portable/GCC/ARM_CM4F/portmacro.h **** typedef unsigned long UBaseType_t;
  58:Middlewares/Third_Party/FreeRTOS/Source/portable/GCC/ARM_CM4F/portmacro.h **** 
  59:Middlewares/Third_Party/FreeRTOS/Source/portable/GCC/ARM_CM4F/portmacro.h **** #if( configUSE_16_BIT_TICKS == 1 )
  60:Middlewares/Third_Party/FreeRTOS/Source/portable/GCC/ARM_CM4F/portmacro.h **** 	typedef uint16_t TickType_t;
  61:Middlewares/Third_Party/FreeRTOS/Source/portable/GCC/ARM_CM4F/portmacro.h **** 	#define portMAX_DELAY ( TickType_t ) 0xffff
  62:Middlewares/Third_Party/FreeRTOS/Source/portable/GCC/ARM_CM4F/portmacro.h **** #else
  63:Middlewares/Third_Party/FreeRTOS/Source/portable/GCC/ARM_CM4F/portmacro.h **** 	typedef uint32_t TickType_t;
  64:Middlewares/Third_Party/FreeRTOS/Source/portable/GCC/ARM_CM4F/portmacro.h **** 	#define portMAX_DELAY ( TickType_t ) 0xffffffffUL
  65:Middlewares/Third_Party/FreeRTOS/Source/portable/GCC/ARM_CM4F/portmacro.h **** 
  66:Middlewares/Third_Party/FreeRTOS/Source/portable/GCC/ARM_CM4F/portmacro.h **** 	/* 32-bit tick type on a 32-bit architecture, so reads of the tick count do
  67:Middlewares/Third_Party/FreeRTOS/Source/portable/GCC/ARM_CM4F/portmacro.h **** 	not need to be guarded with a critical section. */
  68:Middlewares/Third_Party/FreeRTOS/Source/portable/GCC/ARM_CM4F/portmacro.h **** 	#define portTICK_TYPE_IS_ATOMIC 1
  69:Middlewares/Third_Party/FreeRTOS/Source/portable/GCC/ARM_CM4F/portmacro.h **** #endif
  70:Middlewares/Third_Party/FreeRTOS/Source/portable/GCC/ARM_CM4F/portmacro.h **** /*-----------------------------------------------------------*/
  71:Middlewares/Third_Party/FreeRTOS/Source/portable/GCC/ARM_CM4F/portmacro.h **** 
  72:Middlewares/Third_Party/FreeRTOS/Source/portable/GCC/ARM_CM4F/portmacro.h **** /* Architecture specifics. */
  73:Middlewares/Third_Party/FreeRTOS/Source/portable/GCC/ARM_CM4F/portmacro.h **** #define portSTACK_GROWTH			( -1 )
  74:Middlewares/Third_Party/FreeRTOS/Source/portable/GCC/ARM_CM4F/portmacro.h **** #define portTICK_PERIOD_MS			( ( TickType_t ) 1000 / configTICK_RATE_HZ )
  75:Middlewares/Third_Party/FreeRTOS/Source/portable/GCC/ARM_CM4F/portmacro.h **** #define portBYTE_ALIGNMENT			8
  76:Middlewares/Third_Party/FreeRTOS/Source/portable/GCC/ARM_CM4F/portmacro.h **** /*-----------------------------------------------------------*/
  77:Middlewares/Third_Party/FreeRTOS/Source/portable/GCC/ARM_CM4F/portmacro.h **** 
  78:Middlewares/Third_Party/FreeRTOS/Source/portable/GCC/ARM_CM4F/portmacro.h **** /* Scheduler utilities. */
  79:Middlewares/Third_Party/FreeRTOS/Source/portable/GCC/ARM_CM4F/portmacro.h **** #define portYIELD() 															\
  80:Middlewares/Third_Party/FreeRTOS/Source/portable/GCC/ARM_CM4F/portmacro.h **** {																				\
ARM GAS  C:\Users\zhaohe\AppData\Local\Temp\ccBd5B9N.s 			page 17


  81:Middlewares/Third_Party/FreeRTOS/Source/portable/GCC/ARM_CM4F/portmacro.h **** 	/* Set a PendSV to request a context switch. */								\
  82:Middlewares/Third_Party/FreeRTOS/Source/portable/GCC/ARM_CM4F/portmacro.h **** 	portNVIC_INT_CTRL_REG = portNVIC_PENDSVSET_BIT;								\
  83:Middlewares/Third_Party/FreeRTOS/Source/portable/GCC/ARM_CM4F/portmacro.h **** 																				\
  84:Middlewares/Third_Party/FreeRTOS/Source/portable/GCC/ARM_CM4F/portmacro.h **** 	/* Barriers are normally not required but do ensure the code is completely	\
  85:Middlewares/Third_Party/FreeRTOS/Source/portable/GCC/ARM_CM4F/portmacro.h **** 	within the specified behaviour for the architecture. */						\
  86:Middlewares/Third_Party/FreeRTOS/Source/portable/GCC/ARM_CM4F/portmacro.h **** 	__asm volatile( "dsb" ::: "memory" );										\
  87:Middlewares/Third_Party/FreeRTOS/Source/portable/GCC/ARM_CM4F/portmacro.h **** 	__asm volatile( "isb" );													\
  88:Middlewares/Third_Party/FreeRTOS/Source/portable/GCC/ARM_CM4F/portmacro.h **** }
  89:Middlewares/Third_Party/FreeRTOS/Source/portable/GCC/ARM_CM4F/portmacro.h **** 
  90:Middlewares/Third_Party/FreeRTOS/Source/portable/GCC/ARM_CM4F/portmacro.h **** #define portNVIC_INT_CTRL_REG		( * ( ( volatile uint32_t * ) 0xe000ed04 ) )
  91:Middlewares/Third_Party/FreeRTOS/Source/portable/GCC/ARM_CM4F/portmacro.h **** #define portNVIC_PENDSVSET_BIT		( 1UL << 28UL )
  92:Middlewares/Third_Party/FreeRTOS/Source/portable/GCC/ARM_CM4F/portmacro.h **** #define portEND_SWITCHING_ISR( xSwitchRequired ) if( xSwitchRequired != pdFALSE ) portYIELD()
  93:Middlewares/Third_Party/FreeRTOS/Source/portable/GCC/ARM_CM4F/portmacro.h **** #define portYIELD_FROM_ISR( x ) portEND_SWITCHING_ISR( x )
  94:Middlewares/Third_Party/FreeRTOS/Source/portable/GCC/ARM_CM4F/portmacro.h **** /*-----------------------------------------------------------*/
  95:Middlewares/Third_Party/FreeRTOS/Source/portable/GCC/ARM_CM4F/portmacro.h **** 
  96:Middlewares/Third_Party/FreeRTOS/Source/portable/GCC/ARM_CM4F/portmacro.h **** /* Critical section management. */
  97:Middlewares/Third_Party/FreeRTOS/Source/portable/GCC/ARM_CM4F/portmacro.h **** extern void vPortEnterCritical( void );
  98:Middlewares/Third_Party/FreeRTOS/Source/portable/GCC/ARM_CM4F/portmacro.h **** extern void vPortExitCritical( void );
  99:Middlewares/Third_Party/FreeRTOS/Source/portable/GCC/ARM_CM4F/portmacro.h **** #define portSET_INTERRUPT_MASK_FROM_ISR()		ulPortRaiseBASEPRI()
 100:Middlewares/Third_Party/FreeRTOS/Source/portable/GCC/ARM_CM4F/portmacro.h **** #define portCLEAR_INTERRUPT_MASK_FROM_ISR(x)	vPortSetBASEPRI(x)
 101:Middlewares/Third_Party/FreeRTOS/Source/portable/GCC/ARM_CM4F/portmacro.h **** #define portDISABLE_INTERRUPTS()				vPortRaiseBASEPRI()
 102:Middlewares/Third_Party/FreeRTOS/Source/portable/GCC/ARM_CM4F/portmacro.h **** #define portENABLE_INTERRUPTS()					vPortSetBASEPRI(0)
 103:Middlewares/Third_Party/FreeRTOS/Source/portable/GCC/ARM_CM4F/portmacro.h **** #define portENTER_CRITICAL()					vPortEnterCritical()
 104:Middlewares/Third_Party/FreeRTOS/Source/portable/GCC/ARM_CM4F/portmacro.h **** #define portEXIT_CRITICAL()						vPortExitCritical()
 105:Middlewares/Third_Party/FreeRTOS/Source/portable/GCC/ARM_CM4F/portmacro.h **** 
 106:Middlewares/Third_Party/FreeRTOS/Source/portable/GCC/ARM_CM4F/portmacro.h **** /*-----------------------------------------------------------*/
 107:Middlewares/Third_Party/FreeRTOS/Source/portable/GCC/ARM_CM4F/portmacro.h **** 
 108:Middlewares/Third_Party/FreeRTOS/Source/portable/GCC/ARM_CM4F/portmacro.h **** /* Task function macros as described on the FreeRTOS.org WEB site.  These are
 109:Middlewares/Third_Party/FreeRTOS/Source/portable/GCC/ARM_CM4F/portmacro.h **** not necessary for to use this port.  They are defined so the common demo files
 110:Middlewares/Third_Party/FreeRTOS/Source/portable/GCC/ARM_CM4F/portmacro.h **** (which build with all the ports) will build. */
 111:Middlewares/Third_Party/FreeRTOS/Source/portable/GCC/ARM_CM4F/portmacro.h **** #define portTASK_FUNCTION_PROTO( vFunction, pvParameters ) void vFunction( void *pvParameters )
 112:Middlewares/Third_Party/FreeRTOS/Source/portable/GCC/ARM_CM4F/portmacro.h **** #define portTASK_FUNCTION( vFunction, pvParameters ) void vFunction( void *pvParameters )
 113:Middlewares/Third_Party/FreeRTOS/Source/portable/GCC/ARM_CM4F/portmacro.h **** /*-----------------------------------------------------------*/
 114:Middlewares/Third_Party/FreeRTOS/Source/portable/GCC/ARM_CM4F/portmacro.h **** 
 115:Middlewares/Third_Party/FreeRTOS/Source/portable/GCC/ARM_CM4F/portmacro.h **** /* Tickless idle/low power functionality. */
 116:Middlewares/Third_Party/FreeRTOS/Source/portable/GCC/ARM_CM4F/portmacro.h **** #ifndef portSUPPRESS_TICKS_AND_SLEEP
 117:Middlewares/Third_Party/FreeRTOS/Source/portable/GCC/ARM_CM4F/portmacro.h **** 	extern void vPortSuppressTicksAndSleep( TickType_t xExpectedIdleTime );
 118:Middlewares/Third_Party/FreeRTOS/Source/portable/GCC/ARM_CM4F/portmacro.h **** 	#define portSUPPRESS_TICKS_AND_SLEEP( xExpectedIdleTime ) vPortSuppressTicksAndSleep( xExpectedIdl
 119:Middlewares/Third_Party/FreeRTOS/Source/portable/GCC/ARM_CM4F/portmacro.h **** #endif
 120:Middlewares/Third_Party/FreeRTOS/Source/portable/GCC/ARM_CM4F/portmacro.h **** /*-----------------------------------------------------------*/
 121:Middlewares/Third_Party/FreeRTOS/Source/portable/GCC/ARM_CM4F/portmacro.h **** 
 122:Middlewares/Third_Party/FreeRTOS/Source/portable/GCC/ARM_CM4F/portmacro.h **** /* Architecture specific optimisations. */
 123:Middlewares/Third_Party/FreeRTOS/Source/portable/GCC/ARM_CM4F/portmacro.h **** #ifndef configUSE_PORT_OPTIMISED_TASK_SELECTION
 124:Middlewares/Third_Party/FreeRTOS/Source/portable/GCC/ARM_CM4F/portmacro.h **** 	#define configUSE_PORT_OPTIMISED_TASK_SELECTION 1
 125:Middlewares/Third_Party/FreeRTOS/Source/portable/GCC/ARM_CM4F/portmacro.h **** #endif
 126:Middlewares/Third_Party/FreeRTOS/Source/portable/GCC/ARM_CM4F/portmacro.h **** 
 127:Middlewares/Third_Party/FreeRTOS/Source/portable/GCC/ARM_CM4F/portmacro.h **** #if configUSE_PORT_OPTIMISED_TASK_SELECTION == 1
 128:Middlewares/Third_Party/FreeRTOS/Source/portable/GCC/ARM_CM4F/portmacro.h **** 
 129:Middlewares/Third_Party/FreeRTOS/Source/portable/GCC/ARM_CM4F/portmacro.h **** 	/* Generic helper function. */
 130:Middlewares/Third_Party/FreeRTOS/Source/portable/GCC/ARM_CM4F/portmacro.h **** 	__attribute__( ( always_inline ) ) static inline uint8_t ucPortCountLeadingZeros( uint32_t ulBitma
 131:Middlewares/Third_Party/FreeRTOS/Source/portable/GCC/ARM_CM4F/portmacro.h **** 	{
 132:Middlewares/Third_Party/FreeRTOS/Source/portable/GCC/ARM_CM4F/portmacro.h **** 	uint8_t ucReturn;
 133:Middlewares/Third_Party/FreeRTOS/Source/portable/GCC/ARM_CM4F/portmacro.h **** 
 134:Middlewares/Third_Party/FreeRTOS/Source/portable/GCC/ARM_CM4F/portmacro.h **** 		__asm volatile ( "clz %0, %1" : "=r" ( ucReturn ) : "r" ( ulBitmap ) : "memory" );
 135:Middlewares/Third_Party/FreeRTOS/Source/portable/GCC/ARM_CM4F/portmacro.h **** 		return ucReturn;
 136:Middlewares/Third_Party/FreeRTOS/Source/portable/GCC/ARM_CM4F/portmacro.h **** 	}
 137:Middlewares/Third_Party/FreeRTOS/Source/portable/GCC/ARM_CM4F/portmacro.h **** 
ARM GAS  C:\Users\zhaohe\AppData\Local\Temp\ccBd5B9N.s 			page 18


 138:Middlewares/Third_Party/FreeRTOS/Source/portable/GCC/ARM_CM4F/portmacro.h **** 	/* Check the configuration. */
 139:Middlewares/Third_Party/FreeRTOS/Source/portable/GCC/ARM_CM4F/portmacro.h **** 	#if( configMAX_PRIORITIES > 32 )
 140:Middlewares/Third_Party/FreeRTOS/Source/portable/GCC/ARM_CM4F/portmacro.h **** 		#error configUSE_PORT_OPTIMISED_TASK_SELECTION can only be set to 1 when configMAX_PRIORITIES is 
 141:Middlewares/Third_Party/FreeRTOS/Source/portable/GCC/ARM_CM4F/portmacro.h **** 	#endif
 142:Middlewares/Third_Party/FreeRTOS/Source/portable/GCC/ARM_CM4F/portmacro.h **** 
 143:Middlewares/Third_Party/FreeRTOS/Source/portable/GCC/ARM_CM4F/portmacro.h **** 	/* Store/clear the ready priorities in a bit map. */
 144:Middlewares/Third_Party/FreeRTOS/Source/portable/GCC/ARM_CM4F/portmacro.h **** 	#define portRECORD_READY_PRIORITY( uxPriority, uxReadyPriorities ) ( uxReadyPriorities ) |= ( 1UL 
 145:Middlewares/Third_Party/FreeRTOS/Source/portable/GCC/ARM_CM4F/portmacro.h **** 	#define portRESET_READY_PRIORITY( uxPriority, uxReadyPriorities ) ( uxReadyPriorities ) &= ~( 1UL 
 146:Middlewares/Third_Party/FreeRTOS/Source/portable/GCC/ARM_CM4F/portmacro.h **** 
 147:Middlewares/Third_Party/FreeRTOS/Source/portable/GCC/ARM_CM4F/portmacro.h **** 	/*-----------------------------------------------------------*/
 148:Middlewares/Third_Party/FreeRTOS/Source/portable/GCC/ARM_CM4F/portmacro.h **** 
 149:Middlewares/Third_Party/FreeRTOS/Source/portable/GCC/ARM_CM4F/portmacro.h **** 	#define portGET_HIGHEST_PRIORITY( uxTopPriority, uxReadyPriorities ) uxTopPriority = ( 31UL - ( ui
 150:Middlewares/Third_Party/FreeRTOS/Source/portable/GCC/ARM_CM4F/portmacro.h **** 
 151:Middlewares/Third_Party/FreeRTOS/Source/portable/GCC/ARM_CM4F/portmacro.h **** #endif /* configUSE_PORT_OPTIMISED_TASK_SELECTION */
 152:Middlewares/Third_Party/FreeRTOS/Source/portable/GCC/ARM_CM4F/portmacro.h **** 
 153:Middlewares/Third_Party/FreeRTOS/Source/portable/GCC/ARM_CM4F/portmacro.h **** /*-----------------------------------------------------------*/
 154:Middlewares/Third_Party/FreeRTOS/Source/portable/GCC/ARM_CM4F/portmacro.h **** 
 155:Middlewares/Third_Party/FreeRTOS/Source/portable/GCC/ARM_CM4F/portmacro.h **** #ifdef configASSERT
 156:Middlewares/Third_Party/FreeRTOS/Source/portable/GCC/ARM_CM4F/portmacro.h **** 	void vPortValidateInterruptPriority( void );
 157:Middlewares/Third_Party/FreeRTOS/Source/portable/GCC/ARM_CM4F/portmacro.h **** 	#define portASSERT_IF_INTERRUPT_PRIORITY_INVALID() 	vPortValidateInterruptPriority()
 158:Middlewares/Third_Party/FreeRTOS/Source/portable/GCC/ARM_CM4F/portmacro.h **** #endif
 159:Middlewares/Third_Party/FreeRTOS/Source/portable/GCC/ARM_CM4F/portmacro.h **** 
 160:Middlewares/Third_Party/FreeRTOS/Source/portable/GCC/ARM_CM4F/portmacro.h **** /* portNOP() is not required by this port. */
 161:Middlewares/Third_Party/FreeRTOS/Source/portable/GCC/ARM_CM4F/portmacro.h **** #define portNOP()
 162:Middlewares/Third_Party/FreeRTOS/Source/portable/GCC/ARM_CM4F/portmacro.h **** 
 163:Middlewares/Third_Party/FreeRTOS/Source/portable/GCC/ARM_CM4F/portmacro.h **** #define portINLINE	__inline
 164:Middlewares/Third_Party/FreeRTOS/Source/portable/GCC/ARM_CM4F/portmacro.h **** 
 165:Middlewares/Third_Party/FreeRTOS/Source/portable/GCC/ARM_CM4F/portmacro.h **** #ifndef portFORCE_INLINE
 166:Middlewares/Third_Party/FreeRTOS/Source/portable/GCC/ARM_CM4F/portmacro.h **** 	#define portFORCE_INLINE inline __attribute__(( always_inline))
 167:Middlewares/Third_Party/FreeRTOS/Source/portable/GCC/ARM_CM4F/portmacro.h **** #endif
 168:Middlewares/Third_Party/FreeRTOS/Source/portable/GCC/ARM_CM4F/portmacro.h **** 
 169:Middlewares/Third_Party/FreeRTOS/Source/portable/GCC/ARM_CM4F/portmacro.h **** portFORCE_INLINE static BaseType_t xPortIsInsideInterrupt( void )
 170:Middlewares/Third_Party/FreeRTOS/Source/portable/GCC/ARM_CM4F/portmacro.h **** {
 171:Middlewares/Third_Party/FreeRTOS/Source/portable/GCC/ARM_CM4F/portmacro.h **** uint32_t ulCurrentInterrupt;
 172:Middlewares/Third_Party/FreeRTOS/Source/portable/GCC/ARM_CM4F/portmacro.h **** BaseType_t xReturn;
 173:Middlewares/Third_Party/FreeRTOS/Source/portable/GCC/ARM_CM4F/portmacro.h **** 
 174:Middlewares/Third_Party/FreeRTOS/Source/portable/GCC/ARM_CM4F/portmacro.h **** 	/* Obtain the number of the currently executing interrupt. */
 175:Middlewares/Third_Party/FreeRTOS/Source/portable/GCC/ARM_CM4F/portmacro.h **** 	__asm volatile( "mrs %0, ipsr" : "=r"( ulCurrentInterrupt ) :: "memory" );
 176:Middlewares/Third_Party/FreeRTOS/Source/portable/GCC/ARM_CM4F/portmacro.h **** 
 177:Middlewares/Third_Party/FreeRTOS/Source/portable/GCC/ARM_CM4F/portmacro.h **** 	if( ulCurrentInterrupt == 0 )
 178:Middlewares/Third_Party/FreeRTOS/Source/portable/GCC/ARM_CM4F/portmacro.h **** 	{
 179:Middlewares/Third_Party/FreeRTOS/Source/portable/GCC/ARM_CM4F/portmacro.h **** 		xReturn = pdFALSE;
 180:Middlewares/Third_Party/FreeRTOS/Source/portable/GCC/ARM_CM4F/portmacro.h **** 	}
 181:Middlewares/Third_Party/FreeRTOS/Source/portable/GCC/ARM_CM4F/portmacro.h **** 	else
 182:Middlewares/Third_Party/FreeRTOS/Source/portable/GCC/ARM_CM4F/portmacro.h **** 	{
 183:Middlewares/Third_Party/FreeRTOS/Source/portable/GCC/ARM_CM4F/portmacro.h **** 		xReturn = pdTRUE;
 184:Middlewares/Third_Party/FreeRTOS/Source/portable/GCC/ARM_CM4F/portmacro.h **** 	}
 185:Middlewares/Third_Party/FreeRTOS/Source/portable/GCC/ARM_CM4F/portmacro.h **** 
 186:Middlewares/Third_Party/FreeRTOS/Source/portable/GCC/ARM_CM4F/portmacro.h **** 	return xReturn;
 187:Middlewares/Third_Party/FreeRTOS/Source/portable/GCC/ARM_CM4F/portmacro.h **** }
 188:Middlewares/Third_Party/FreeRTOS/Source/portable/GCC/ARM_CM4F/portmacro.h **** 
 189:Middlewares/Third_Party/FreeRTOS/Source/portable/GCC/ARM_CM4F/portmacro.h **** /*-----------------------------------------------------------*/
 190:Middlewares/Third_Party/FreeRTOS/Source/portable/GCC/ARM_CM4F/portmacro.h **** 
 191:Middlewares/Third_Party/FreeRTOS/Source/portable/GCC/ARM_CM4F/portmacro.h **** portFORCE_INLINE static void vPortRaiseBASEPRI( void )
 118              		.loc 2 191 30 view .LVU27
 119              	.LBB38:
 192:Middlewares/Third_Party/FreeRTOS/Source/portable/GCC/ARM_CM4F/portmacro.h **** {
ARM GAS  C:\Users\zhaohe\AppData\Local\Temp\ccBd5B9N.s 			page 19


 193:Middlewares/Third_Party/FreeRTOS/Source/portable/GCC/ARM_CM4F/portmacro.h **** uint32_t ulNewBASEPRI;
 120              		.loc 2 193 1 view .LVU28
 194:Middlewares/Third_Party/FreeRTOS/Source/portable/GCC/ARM_CM4F/portmacro.h **** 
 195:Middlewares/Third_Party/FreeRTOS/Source/portable/GCC/ARM_CM4F/portmacro.h **** 	__asm volatile
 121              		.loc 2 195 2 view .LVU29
 122              		.syntax unified
 123              	@ 195 "Middlewares/Third_Party/FreeRTOS/Source/portable/GCC/ARM_CM4F/portmacro.h" 1
 124 0012 4FF05003 			mov r3, #80												
 125 0016 83F31188 		msr basepri, r3											
 126 001a BFF36F8F 		isb														
 127 001e BFF34F8F 		dsb														
 128              	
 129              	@ 0 "" 2
 130              	.LVL9:
 131              		.thumb
 132              		.syntax unified
 133              	.L10:
 134              		.loc 2 195 2 is_stmt 0 view .LVU30
 135              	.LBE38:
 136              	.LBE37:
 106:Middlewares/Third_Party/FreeRTOS/Source/event_groups.c **** 		} /*lint !e529 xSize is referenced if configASSERT() is defined. */
 137              		.loc 1 106 4 is_stmt 1 discriminator 2 view .LVU31
 106:Middlewares/Third_Party/FreeRTOS/Source/event_groups.c **** 		} /*lint !e529 xSize is referenced if configASSERT() is defined. */
 138              		.loc 1 106 4 discriminator 2 view .LVU32
 106:Middlewares/Third_Party/FreeRTOS/Source/event_groups.c **** 		} /*lint !e529 xSize is referenced if configASSERT() is defined. */
 139              		.loc 1 106 4 discriminator 2 view .LVU33
 140 0022 FEE7     		b	.L10
 141              	.L13:
 142              	.LCFI2:
 143              		.cfi_def_cfa_offset 0
 144              		.cfi_restore 4
 145              		.cfi_restore 14
 106:Middlewares/Third_Party/FreeRTOS/Source/event_groups.c **** 		} /*lint !e529 xSize is referenced if configASSERT() is defined. */
 146              		.loc 1 106 4 is_stmt 0 discriminator 2 view .LVU34
 147              	.LBE36:
  98:Middlewares/Third_Party/FreeRTOS/Source/event_groups.c **** 
 148              		.loc 1 98 3 is_stmt 1 view .LVU35
 149              	.LBB39:
 150              	.LBI39:
 191:Middlewares/Third_Party/FreeRTOS/Source/portable/GCC/ARM_CM4F/portmacro.h **** {
 151              		.loc 2 191 30 view .LVU36
 152              	.LBB40:
 193:Middlewares/Third_Party/FreeRTOS/Source/portable/GCC/ARM_CM4F/portmacro.h **** 
 153              		.loc 2 193 1 view .LVU37
 154              		.loc 2 195 2 view .LVU38
 155              		.syntax unified
 156              	@ 195 "Middlewares/Third_Party/FreeRTOS/Source/portable/GCC/ARM_CM4F/portmacro.h" 1
 157 0024 4FF05003 			mov r3, #80												
 158 0028 83F31188 		msr basepri, r3											
 159 002c BFF36F8F 		isb														
 160 0030 BFF34F8F 		dsb														
 161              	
 162              	@ 0 "" 2
 163              	.LVL10:
 164              		.thumb
 165              		.syntax unified
 166              	.L8:
ARM GAS  C:\Users\zhaohe\AppData\Local\Temp\ccBd5B9N.s 			page 20


 167              		.loc 2 195 2 is_stmt 0 view .LVU39
 168              	.LBE40:
 169              	.LBE39:
  98:Middlewares/Third_Party/FreeRTOS/Source/event_groups.c **** 
 170              		.loc 1 98 3 is_stmt 1 discriminator 1 view .LVU40
  98:Middlewares/Third_Party/FreeRTOS/Source/event_groups.c **** 
 171              		.loc 1 98 3 discriminator 1 view .LVU41
  98:Middlewares/Third_Party/FreeRTOS/Source/event_groups.c **** 
 172              		.loc 1 98 3 discriminator 1 view .LVU42
 173 0034 FEE7     		b	.L8
 174              	.L9:
 175              	.LCFI3:
 176              		.cfi_def_cfa_offset 16
 177              		.cfi_offset 4, -8
 178              		.cfi_offset 14, -4
 179              	.LBB41:
 106:Middlewares/Third_Party/FreeRTOS/Source/event_groups.c **** 		} /*lint !e529 xSize is referenced if configASSERT() is defined. */
 180              		.loc 1 106 51 view .LVU43
 181              	.LBE41:
 111:Middlewares/Third_Party/FreeRTOS/Source/event_groups.c **** 
 182              		.loc 1 111 3 view .LVU44
 183              	.LVL11:
 113:Middlewares/Third_Party/FreeRTOS/Source/event_groups.c **** 		{
 184              		.loc 1 113 3 view .LVU45
 115:Middlewares/Third_Party/FreeRTOS/Source/event_groups.c **** 			vListInitialise( &( pxEventBits->xTasksWaitingForBits ) );
 185              		.loc 1 115 4 view .LVU46
 115:Middlewares/Third_Party/FreeRTOS/Source/event_groups.c **** 			vListInitialise( &( pxEventBits->xTasksWaitingForBits ) );
 186              		.loc 1 115 29 is_stmt 0 view .LVU47
 187 0036 0023     		movs	r3, #0
 188 0038 40F8043B 		str	r3, [r0], #4
 189              	.LVL12:
 116:Middlewares/Third_Party/FreeRTOS/Source/event_groups.c **** 
 190              		.loc 1 116 4 is_stmt 1 view .LVU48
 191 003c FFF7FEFF 		bl	vListInitialise
 192              	.LVL13:
 123:Middlewares/Third_Party/FreeRTOS/Source/event_groups.c **** 			}
 193              		.loc 1 123 5 view .LVU49
 123:Middlewares/Third_Party/FreeRTOS/Source/event_groups.c **** 			}
 194              		.loc 1 123 40 is_stmt 0 view .LVU50
 195 0040 0123     		movs	r3, #1
 196 0042 2376     		strb	r3, [r4, #24]
 127:Middlewares/Third_Party/FreeRTOS/Source/event_groups.c **** 		}
 197              		.loc 1 127 42 is_stmt 1 view .LVU51
 134:Middlewares/Third_Party/FreeRTOS/Source/event_groups.c **** 		}
 198              		.loc 1 134 36 view .LVU52
 137:Middlewares/Third_Party/FreeRTOS/Source/event_groups.c **** 	}
 199              		.loc 1 137 3 view .LVU53
 138:Middlewares/Third_Party/FreeRTOS/Source/event_groups.c **** 
 200              		.loc 1 138 2 is_stmt 0 view .LVU54
 201 0044 2046     		mov	r0, r4
 202 0046 02B0     		add	sp, sp, #8
 203              	.LCFI4:
 204              		.cfi_def_cfa_offset 8
 205              		@ sp needed
 206 0048 10BD     		pop	{r4, pc}
 138:Middlewares/Third_Party/FreeRTOS/Source/event_groups.c **** 
 207              		.loc 1 138 2 view .LVU55
ARM GAS  C:\Users\zhaohe\AppData\Local\Temp\ccBd5B9N.s 			page 21


 208              		.cfi_endproc
 209              	.LFE5:
 211              		.section	.text.xEventGroupCreate,"ax",%progbits
 212              		.align	1
 213              		.global	xEventGroupCreate
 214              		.syntax unified
 215              		.thumb
 216              		.thumb_func
 218              	xEventGroupCreate:
 219              	.LFB6:
 146:Middlewares/Third_Party/FreeRTOS/Source/event_groups.c **** 	EventGroup_t *pxEventBits;
 220              		.loc 1 146 2 is_stmt 1 view -0
 221              		.cfi_startproc
 222              		@ args = 0, pretend = 0, frame = 0
 223              		@ frame_needed = 0, uses_anonymous_args = 0
 224 0000 38B5     		push	{r3, r4, r5, lr}
 225              	.LCFI5:
 226              		.cfi_def_cfa_offset 16
 227              		.cfi_offset 3, -16
 228              		.cfi_offset 4, -12
 229              		.cfi_offset 5, -8
 230              		.cfi_offset 14, -4
 147:Middlewares/Third_Party/FreeRTOS/Source/event_groups.c **** 
 231              		.loc 1 147 2 view .LVU57
 162:Middlewares/Third_Party/FreeRTOS/Source/event_groups.c **** 
 232              		.loc 1 162 3 view .LVU58
 162:Middlewares/Third_Party/FreeRTOS/Source/event_groups.c **** 
 233              		.loc 1 162 36 is_stmt 0 view .LVU59
 234 0002 1C20     		movs	r0, #28
 235 0004 FFF7FEFF 		bl	pvPortMalloc
 236              	.LVL14:
 164:Middlewares/Third_Party/FreeRTOS/Source/event_groups.c **** 		{
 237              		.loc 1 164 3 is_stmt 1 view .LVU60
 164:Middlewares/Third_Party/FreeRTOS/Source/event_groups.c **** 		{
 238              		.loc 1 164 5 is_stmt 0 view .LVU61
 239 0008 0446     		mov	r4, r0
 240 000a 28B1     		cbz	r0, .L14
 166:Middlewares/Third_Party/FreeRTOS/Source/event_groups.c **** 			vListInitialise( &( pxEventBits->xTasksWaitingForBits ) );
 241              		.loc 1 166 4 is_stmt 1 view .LVU62
 166:Middlewares/Third_Party/FreeRTOS/Source/event_groups.c **** 			vListInitialise( &( pxEventBits->xTasksWaitingForBits ) );
 242              		.loc 1 166 29 is_stmt 0 view .LVU63
 243 000c 0025     		movs	r5, #0
 244 000e 40F8045B 		str	r5, [r0], #4
 245              	.LVL15:
 167:Middlewares/Third_Party/FreeRTOS/Source/event_groups.c **** 
 246              		.loc 1 167 4 is_stmt 1 view .LVU64
 247 0012 FFF7FEFF 		bl	vListInitialise
 248              	.LVL16:
 174:Middlewares/Third_Party/FreeRTOS/Source/event_groups.c **** 			}
 249              		.loc 1 174 5 view .LVU65
 174:Middlewares/Third_Party/FreeRTOS/Source/event_groups.c **** 			}
 250              		.loc 1 174 40 is_stmt 0 view .LVU66
 251 0016 2576     		strb	r5, [r4, #24]
 178:Middlewares/Third_Party/FreeRTOS/Source/event_groups.c **** 		}
 252              		.loc 1 178 42 is_stmt 1 view .LVU67
 182:Middlewares/Third_Party/FreeRTOS/Source/event_groups.c **** 		}
 253              		.loc 1 182 36 view .LVU68
ARM GAS  C:\Users\zhaohe\AppData\Local\Temp\ccBd5B9N.s 			page 22


 185:Middlewares/Third_Party/FreeRTOS/Source/event_groups.c **** 	}
 254              		.loc 1 185 3 view .LVU69
 255              	.L14:
 186:Middlewares/Third_Party/FreeRTOS/Source/event_groups.c **** 
 256              		.loc 1 186 2 is_stmt 0 view .LVU70
 257 0018 2046     		mov	r0, r4
 258 001a 38BD     		pop	{r3, r4, r5, pc}
 186:Middlewares/Third_Party/FreeRTOS/Source/event_groups.c **** 
 259              		.loc 1 186 2 view .LVU71
 260              		.cfi_endproc
 261              	.LFE6:
 263              		.section	.text.xEventGroupWaitBits,"ax",%progbits
 264              		.align	1
 265              		.global	xEventGroupWaitBits
 266              		.syntax unified
 267              		.thumb
 268              		.thumb_func
 270              	xEventGroupWaitBits:
 271              	.LVL17:
 272              	.LFB8:
 312:Middlewares/Third_Party/FreeRTOS/Source/event_groups.c **** EventGroup_t *pxEventBits = xEventGroup;
 273              		.loc 1 312 1 is_stmt 1 view -0
 274              		.cfi_startproc
 275              		@ args = 4, pretend = 0, frame = 0
 276              		@ frame_needed = 0, uses_anonymous_args = 0
 312:Middlewares/Third_Party/FreeRTOS/Source/event_groups.c **** EventGroup_t *pxEventBits = xEventGroup;
 277              		.loc 1 312 1 is_stmt 0 view .LVU73
 278 0000 2DE9F843 		push	{r3, r4, r5, r6, r7, r8, r9, lr}
 279              	.LCFI6:
 280              		.cfi_def_cfa_offset 32
 281              		.cfi_offset 3, -32
 282              		.cfi_offset 4, -28
 283              		.cfi_offset 5, -24
 284              		.cfi_offset 6, -20
 285              		.cfi_offset 7, -16
 286              		.cfi_offset 8, -12
 287              		.cfi_offset 9, -8
 288              		.cfi_offset 14, -4
 313:Middlewares/Third_Party/FreeRTOS/Source/event_groups.c **** EventBits_t uxReturn, uxControlBits = 0;
 289              		.loc 1 313 1 is_stmt 1 view .LVU74
 290              	.LVL18:
 314:Middlewares/Third_Party/FreeRTOS/Source/event_groups.c **** BaseType_t xWaitConditionMet, xAlreadyYielded;
 291              		.loc 1 314 1 view .LVU75
 315:Middlewares/Third_Party/FreeRTOS/Source/event_groups.c **** BaseType_t xTimeoutOccurred = pdFALSE;
 292              		.loc 1 315 1 view .LVU76
 316:Middlewares/Third_Party/FreeRTOS/Source/event_groups.c **** 
 293              		.loc 1 316 1 view .LVU77
 320:Middlewares/Third_Party/FreeRTOS/Source/event_groups.c **** 	configASSERT( ( uxBitsToWaitFor & eventEVENT_BITS_CONTROL_BYTES ) == 0 );
 294              		.loc 1 320 2 view .LVU78
 295 0004 78B1     		cbz	r0, .L37
 296 0006 0C46     		mov	r4, r1
 297 0008 1646     		mov	r6, r2
 298 000a 1D46     		mov	r5, r3
 299 000c 0746     		mov	r7, r0
 320:Middlewares/Third_Party/FreeRTOS/Source/event_groups.c **** 	configASSERT( ( uxBitsToWaitFor & eventEVENT_BITS_CONTROL_BYTES ) == 0 );
 300              		.loc 1 320 29 discriminator 2 view .LVU79
 321:Middlewares/Third_Party/FreeRTOS/Source/event_groups.c **** 	configASSERT( uxBitsToWaitFor != 0 );
ARM GAS  C:\Users\zhaohe\AppData\Local\Temp\ccBd5B9N.s 			page 23


 301              		.loc 1 321 2 discriminator 2 view .LVU80
 302 000e 11F07F48 		ands	r8, r1, #-16777216
 303 0012 11D0     		beq	.L20
 321:Middlewares/Third_Party/FreeRTOS/Source/event_groups.c **** 	configASSERT( uxBitsToWaitFor != 0 );
 304              		.loc 1 321 2 view .LVU81
 305              	.LBB42:
 306              	.LBI42:
 191:Middlewares/Third_Party/FreeRTOS/Source/portable/GCC/ARM_CM4F/portmacro.h **** {
 307              		.loc 2 191 30 view .LVU82
 308              	.LBB43:
 193:Middlewares/Third_Party/FreeRTOS/Source/portable/GCC/ARM_CM4F/portmacro.h **** 
 309              		.loc 2 193 1 view .LVU83
 310              		.loc 2 195 2 view .LVU84
 311              		.syntax unified
 312              	@ 195 "Middlewares/Third_Party/FreeRTOS/Source/portable/GCC/ARM_CM4F/portmacro.h" 1
 313 0014 4FF05003 			mov r3, #80												
 314 0018 83F31188 		msr basepri, r3											
 315 001c BFF36F8F 		isb														
 316 0020 BFF34F8F 		dsb														
 317              	
 318              	@ 0 "" 2
 319              	.LVL19:
 320              		.thumb
 321              		.syntax unified
 322              	.L21:
 323              		.loc 2 195 2 is_stmt 0 view .LVU85
 324              	.LBE43:
 325              	.LBE42:
 321:Middlewares/Third_Party/FreeRTOS/Source/event_groups.c **** 	configASSERT( uxBitsToWaitFor != 0 );
 326              		.loc 1 321 2 is_stmt 1 discriminator 2 view .LVU86
 321:Middlewares/Third_Party/FreeRTOS/Source/event_groups.c **** 	configASSERT( uxBitsToWaitFor != 0 );
 327              		.loc 1 321 2 discriminator 2 view .LVU87
 321:Middlewares/Third_Party/FreeRTOS/Source/event_groups.c **** 	configASSERT( uxBitsToWaitFor != 0 );
 328              		.loc 1 321 2 discriminator 2 view .LVU88
 329 0024 FEE7     		b	.L21
 330              	.LVL20:
 331              	.L37:
 320:Middlewares/Third_Party/FreeRTOS/Source/event_groups.c **** 	configASSERT( ( uxBitsToWaitFor & eventEVENT_BITS_CONTROL_BYTES ) == 0 );
 332              		.loc 1 320 2 view .LVU89
 333              	.LBB44:
 334              	.LBI44:
 191:Middlewares/Third_Party/FreeRTOS/Source/portable/GCC/ARM_CM4F/portmacro.h **** {
 335              		.loc 2 191 30 view .LVU90
 336              	.LBB45:
 193:Middlewares/Third_Party/FreeRTOS/Source/portable/GCC/ARM_CM4F/portmacro.h **** 
 337              		.loc 2 193 1 view .LVU91
 338              		.loc 2 195 2 view .LVU92
 339              		.syntax unified
 340              	@ 195 "Middlewares/Third_Party/FreeRTOS/Source/portable/GCC/ARM_CM4F/portmacro.h" 1
 341 0026 4FF05003 			mov r3, #80												
 342 002a 83F31188 		msr basepri, r3											
 343 002e BFF36F8F 		isb														
 344 0032 BFF34F8F 		dsb														
 345              	
 346              	@ 0 "" 2
 347              	.LVL21:
 348              		.thumb
ARM GAS  C:\Users\zhaohe\AppData\Local\Temp\ccBd5B9N.s 			page 24


 349              		.syntax unified
 350              	.L19:
 351              		.loc 2 195 2 is_stmt 0 view .LVU93
 352              	.LBE45:
 353              	.LBE44:
 320:Middlewares/Third_Party/FreeRTOS/Source/event_groups.c **** 	configASSERT( ( uxBitsToWaitFor & eventEVENT_BITS_CONTROL_BYTES ) == 0 );
 354              		.loc 1 320 2 is_stmt 1 discriminator 1 view .LVU94
 320:Middlewares/Third_Party/FreeRTOS/Source/event_groups.c **** 	configASSERT( ( uxBitsToWaitFor & eventEVENT_BITS_CONTROL_BYTES ) == 0 );
 355              		.loc 1 320 2 discriminator 1 view .LVU95
 320:Middlewares/Third_Party/FreeRTOS/Source/event_groups.c **** 	configASSERT( ( uxBitsToWaitFor & eventEVENT_BITS_CONTROL_BYTES ) == 0 );
 356              		.loc 1 320 2 discriminator 1 view .LVU96
 357 0036 FEE7     		b	.L19
 358              	.LVL22:
 359              	.L20:
 321:Middlewares/Third_Party/FreeRTOS/Source/event_groups.c **** 	configASSERT( uxBitsToWaitFor != 0 );
 360              		.loc 1 321 74 discriminator 2 view .LVU97
 322:Middlewares/Third_Party/FreeRTOS/Source/event_groups.c **** 	#if ( ( INCLUDE_xTaskGetSchedulerState == 1 ) || ( configUSE_TIMERS == 1 ) )
 361              		.loc 1 322 2 discriminator 2 view .LVU98
 362 0038 41B9     		cbnz	r1, .L22
 322:Middlewares/Third_Party/FreeRTOS/Source/event_groups.c **** 	#if ( ( INCLUDE_xTaskGetSchedulerState == 1 ) || ( configUSE_TIMERS == 1 ) )
 363              		.loc 1 322 2 view .LVU99
 364              	.LBB46:
 365              	.LBI46:
 191:Middlewares/Third_Party/FreeRTOS/Source/portable/GCC/ARM_CM4F/portmacro.h **** {
 366              		.loc 2 191 30 view .LVU100
 367              	.LBB47:
 193:Middlewares/Third_Party/FreeRTOS/Source/portable/GCC/ARM_CM4F/portmacro.h **** 
 368              		.loc 2 193 1 view .LVU101
 369              		.loc 2 195 2 view .LVU102
 370              		.syntax unified
 371              	@ 195 "Middlewares/Third_Party/FreeRTOS/Source/portable/GCC/ARM_CM4F/portmacro.h" 1
 372 003a 4FF05003 			mov r3, #80												
 373 003e 83F31188 		msr basepri, r3											
 374 0042 BFF36F8F 		isb														
 375 0046 BFF34F8F 		dsb														
 376              	
 377              	@ 0 "" 2
 378              	.LVL23:
 379              		.thumb
 380              		.syntax unified
 381              	.L23:
 382              		.loc 2 195 2 is_stmt 0 view .LVU103
 383              	.LBE47:
 384              	.LBE46:
 322:Middlewares/Third_Party/FreeRTOS/Source/event_groups.c **** 	#if ( ( INCLUDE_xTaskGetSchedulerState == 1 ) || ( configUSE_TIMERS == 1 ) )
 385              		.loc 1 322 2 is_stmt 1 discriminator 3 view .LVU104
 322:Middlewares/Third_Party/FreeRTOS/Source/event_groups.c **** 	#if ( ( INCLUDE_xTaskGetSchedulerState == 1 ) || ( configUSE_TIMERS == 1 ) )
 386              		.loc 1 322 2 discriminator 3 view .LVU105
 322:Middlewares/Third_Party/FreeRTOS/Source/event_groups.c **** 	#if ( ( INCLUDE_xTaskGetSchedulerState == 1 ) || ( configUSE_TIMERS == 1 ) )
 387              		.loc 1 322 2 discriminator 3 view .LVU106
 388 004a FEE7     		b	.L23
 389              	.LVL24:
 390              	.L22:
 322:Middlewares/Third_Party/FreeRTOS/Source/event_groups.c **** 	#if ( ( INCLUDE_xTaskGetSchedulerState == 1 ) || ( configUSE_TIMERS == 1 ) )
 391              		.loc 1 322 38 discriminator 2 view .LVU107
 325:Middlewares/Third_Party/FreeRTOS/Source/event_groups.c **** 	}
 392              		.loc 1 325 3 discriminator 2 view .LVU108
ARM GAS  C:\Users\zhaohe\AppData\Local\Temp\ccBd5B9N.s 			page 25


 393 004c FFF7FEFF 		bl	xTaskGetSchedulerState
 394              	.LVL25:
 325:Middlewares/Third_Party/FreeRTOS/Source/event_groups.c **** 	}
 395              		.loc 1 325 3 is_stmt 0 discriminator 2 view .LVU109
 396 0050 50B9     		cbnz	r0, .L24
 397 0052 089B     		ldr	r3, [sp, #32]
 398 0054 43B1     		cbz	r3, .L24
 325:Middlewares/Third_Party/FreeRTOS/Source/event_groups.c **** 	}
 399              		.loc 1 325 3 is_stmt 1 view .LVU110
 400              	.LBB48:
 401              	.LBI48:
 191:Middlewares/Third_Party/FreeRTOS/Source/portable/GCC/ARM_CM4F/portmacro.h **** {
 402              		.loc 2 191 30 view .LVU111
 403              	.LBB49:
 193:Middlewares/Third_Party/FreeRTOS/Source/portable/GCC/ARM_CM4F/portmacro.h **** 
 404              		.loc 2 193 1 view .LVU112
 405              		.loc 2 195 2 view .LVU113
 406              		.syntax unified
 407              	@ 195 "Middlewares/Third_Party/FreeRTOS/Source/portable/GCC/ARM_CM4F/portmacro.h" 1
 408 0056 4FF05003 			mov r3, #80												
 409 005a 83F31188 		msr basepri, r3											
 410 005e BFF36F8F 		isb														
 411 0062 BFF34F8F 		dsb														
 412              	
 413              	@ 0 "" 2
 414              	.LVL26:
 415              		.thumb
 416              		.syntax unified
 417              	.L25:
 418              		.loc 2 195 2 is_stmt 0 view .LVU114
 419              	.LBE49:
 420              	.LBE48:
 325:Middlewares/Third_Party/FreeRTOS/Source/event_groups.c **** 	}
 421              		.loc 1 325 3 is_stmt 1 discriminator 4 view .LVU115
 325:Middlewares/Third_Party/FreeRTOS/Source/event_groups.c **** 	}
 422              		.loc 1 325 3 discriminator 4 view .LVU116
 325:Middlewares/Third_Party/FreeRTOS/Source/event_groups.c **** 	}
 423              		.loc 1 325 3 discriminator 4 view .LVU117
 424 0066 FEE7     		b	.L25
 425              	.L24:
 325:Middlewares/Third_Party/FreeRTOS/Source/event_groups.c **** 	}
 426              		.loc 1 325 104 discriminator 8 view .LVU118
 329:Middlewares/Third_Party/FreeRTOS/Source/event_groups.c **** 	{
 427              		.loc 1 329 2 discriminator 8 view .LVU119
 428 0068 FFF7FEFF 		bl	vTaskSuspendAll
 429              	.LVL27:
 430              	.LBB50:
 331:Middlewares/Third_Party/FreeRTOS/Source/event_groups.c **** 
 431              		.loc 1 331 3 discriminator 8 view .LVU120
 331:Middlewares/Third_Party/FreeRTOS/Source/event_groups.c **** 
 432              		.loc 1 331 21 is_stmt 0 discriminator 8 view .LVU121
 433 006c D7F80090 		ldr	r9, [r7]
 434              	.LVL28:
 334:Middlewares/Third_Party/FreeRTOS/Source/event_groups.c **** 
 435              		.loc 1 334 3 is_stmt 1 discriminator 8 view .LVU122
 334:Middlewares/Third_Party/FreeRTOS/Source/event_groups.c **** 
 436              		.loc 1 334 23 is_stmt 0 discriminator 8 view .LVU123
ARM GAS  C:\Users\zhaohe\AppData\Local\Temp\ccBd5B9N.s 			page 26


 437 0070 2A46     		mov	r2, r5
 438 0072 2146     		mov	r1, r4
 439 0074 4846     		mov	r0, r9
 440 0076 FFF7FEFF 		bl	prvTestWaitCondition
 441              	.LVL29:
 336:Middlewares/Third_Party/FreeRTOS/Source/event_groups.c **** 		{
 442              		.loc 1 336 3 is_stmt 1 discriminator 8 view .LVU124
 336:Middlewares/Third_Party/FreeRTOS/Source/event_groups.c **** 		{
 443              		.loc 1 336 5 is_stmt 0 discriminator 8 view .LVU125
 444 007a F0B1     		cbz	r0, .L26
 340:Middlewares/Third_Party/FreeRTOS/Source/event_groups.c **** 			xTicksToWait = ( TickType_t ) 0;
 445              		.loc 1 340 4 is_stmt 1 view .LVU126
 446              	.LVL30:
 341:Middlewares/Third_Party/FreeRTOS/Source/event_groups.c **** 
 447              		.loc 1 341 4 view .LVU127
 344:Middlewares/Third_Party/FreeRTOS/Source/event_groups.c **** 			{
 448              		.loc 1 344 4 view .LVU128
 344:Middlewares/Third_Party/FreeRTOS/Source/event_groups.c **** 			{
 449              		.loc 1 344 6 is_stmt 0 view .LVU129
 450 007c 16B1     		cbz	r6, .L27
 346:Middlewares/Third_Party/FreeRTOS/Source/event_groups.c **** 			}
 451              		.loc 1 346 5 is_stmt 1 view .LVU130
 346:Middlewares/Third_Party/FreeRTOS/Source/event_groups.c **** 			}
 452              		.loc 1 346 30 is_stmt 0 view .LVU131
 453 007e 29EA0403 		bic	r3, r9, r4
 454 0082 3B60     		str	r3, [r7]
 455              	.LVL31:
 456              	.L27:
 394:Middlewares/Third_Party/FreeRTOS/Source/event_groups.c **** 		}
 457              		.loc 1 394 68 is_stmt 1 view .LVU132
 458              	.LBE50:
 397:Middlewares/Third_Party/FreeRTOS/Source/event_groups.c **** 
 459              		.loc 1 397 2 view .LVU133
 397:Middlewares/Third_Party/FreeRTOS/Source/event_groups.c **** 
 460              		.loc 1 397 20 is_stmt 0 view .LVU134
 461 0084 FFF7FEFF 		bl	xTaskResumeAll
 462              	.LVL32:
 399:Middlewares/Third_Party/FreeRTOS/Source/event_groups.c **** 	{
 463              		.loc 1 399 2 is_stmt 1 view .LVU135
 399:Middlewares/Third_Party/FreeRTOS/Source/event_groups.c **** 	{
 464              		.loc 1 399 4 is_stmt 0 view .LVU136
 465 0088 B8F1000F 		cmp	r8, #0
 466 008c 12D0     		beq	.L17
 401:Middlewares/Third_Party/FreeRTOS/Source/event_groups.c **** 		{
 467              		.loc 1 401 3 is_stmt 1 view .LVU137
 401:Middlewares/Third_Party/FreeRTOS/Source/event_groups.c **** 		{
 468              		.loc 1 401 5 is_stmt 0 view .LVU138
 469 008e 48B9     		cbnz	r0, .L31
 403:Middlewares/Third_Party/FreeRTOS/Source/event_groups.c **** 		}
 470              		.loc 1 403 4 is_stmt 1 view .LVU139
 471 0090 4FF0E023 		mov	r3, #-536813568
 472 0094 4FF08052 		mov	r2, #268435456
 473 0098 C3F8042D 		str	r2, [r3, #3332]
 403:Middlewares/Third_Party/FreeRTOS/Source/event_groups.c **** 		}
 474              		.loc 1 403 4 view .LVU140
 475              		.syntax unified
 476              	@ 403 "Middlewares/Third_Party/FreeRTOS/Source/event_groups.c" 1
ARM GAS  C:\Users\zhaohe\AppData\Local\Temp\ccBd5B9N.s 			page 27


 477 009c BFF34F8F 		dsb
 478              	@ 0 "" 2
 403:Middlewares/Third_Party/FreeRTOS/Source/event_groups.c **** 		}
 479              		.loc 1 403 4 view .LVU141
 480              	@ 403 "Middlewares/Third_Party/FreeRTOS/Source/event_groups.c" 1
 481 00a0 BFF36F8F 		isb
 482              	@ 0 "" 2
 403:Middlewares/Third_Party/FreeRTOS/Source/event_groups.c **** 		}
 483              		.loc 1 403 26 view .LVU142
 484              		.thumb
 485              		.syntax unified
 486              	.L31:
 407:Middlewares/Third_Party/FreeRTOS/Source/event_groups.c **** 		}
 487              		.loc 1 407 28 view .LVU143
 414:Middlewares/Third_Party/FreeRTOS/Source/event_groups.c **** 
 488              		.loc 1 414 3 view .LVU144
 414:Middlewares/Third_Party/FreeRTOS/Source/event_groups.c **** 
 489              		.loc 1 414 14 is_stmt 0 view .LVU145
 490 00a4 FFF7FEFF 		bl	uxTaskResetEventItemValue
 491              	.LVL33:
 414:Middlewares/Third_Party/FreeRTOS/Source/event_groups.c **** 
 492              		.loc 1 414 14 view .LVU146
 493 00a8 8146     		mov	r9, r0
 494              	.LVL34:
 416:Middlewares/Third_Party/FreeRTOS/Source/event_groups.c **** 		{
 495              		.loc 1 416 3 is_stmt 1 view .LVU147
 416:Middlewares/Third_Party/FreeRTOS/Source/event_groups.c **** 		{
 496              		.loc 1 416 5 is_stmt 0 view .LVU148
 497 00aa 10F0007F 		tst	r0, #33554432
 498 00ae 1AD0     		beq	.L38
 499              	.LVL35:
 500              	.L32:
 447:Middlewares/Third_Party/FreeRTOS/Source/event_groups.c **** 
 501              		.loc 1 447 3 is_stmt 1 view .LVU149
 450:Middlewares/Third_Party/FreeRTOS/Source/event_groups.c **** 	}
 502              		.loc 1 450 3 view .LVU150
 450:Middlewares/Third_Party/FreeRTOS/Source/event_groups.c **** 	}
 503              		.loc 1 450 12 is_stmt 0 view .LVU151
 504 00b0 29F07F49 		bic	r9, r9, #-16777216
 505              	.LVL36:
 452:Middlewares/Third_Party/FreeRTOS/Source/event_groups.c **** 
 506              		.loc 1 452 2 is_stmt 1 view .LVU152
 455:Middlewares/Third_Party/FreeRTOS/Source/event_groups.c **** 
 507              		.loc 1 455 2 view .LVU153
 457:Middlewares/Third_Party/FreeRTOS/Source/event_groups.c **** }
 508              		.loc 1 457 2 view .LVU154
 509              	.L17:
 458:Middlewares/Third_Party/FreeRTOS/Source/event_groups.c **** /*-----------------------------------------------------------*/
 510              		.loc 1 458 1 is_stmt 0 view .LVU155
 511 00b4 4846     		mov	r0, r9
 512 00b6 BDE8F883 		pop	{r3, r4, r5, r6, r7, r8, r9, pc}
 513              	.LVL37:
 514              	.L26:
 515              	.LBB51:
 353:Middlewares/Third_Party/FreeRTOS/Source/event_groups.c **** 		{
 516              		.loc 1 353 8 is_stmt 1 view .LVU156
 353:Middlewares/Third_Party/FreeRTOS/Source/event_groups.c **** 		{
ARM GAS  C:\Users\zhaohe\AppData\Local\Temp\ccBd5B9N.s 			page 28


 517              		.loc 1 353 10 is_stmt 0 view .LVU157
 518 00ba 089B     		ldr	r3, [sp, #32]
 519 00bc 83B1     		cbz	r3, .L34
 366:Middlewares/Third_Party/FreeRTOS/Source/event_groups.c **** 			{
 520              		.loc 1 366 4 is_stmt 1 view .LVU158
 366:Middlewares/Third_Party/FreeRTOS/Source/event_groups.c **** 			{
 521              		.loc 1 366 6 is_stmt 0 view .LVU159
 522 00be 66B9     		cbnz	r6, .L35
 523              	.LBE51:
 314:Middlewares/Third_Party/FreeRTOS/Source/event_groups.c **** BaseType_t xWaitConditionMet, xAlreadyYielded;
 524              		.loc 1 314 23 view .LVU160
 525 00c0 4146     		mov	r1, r8
 526              	.L28:
 527              	.LVL38:
 528              	.LBB52:
 372:Middlewares/Third_Party/FreeRTOS/Source/event_groups.c **** 			}
 529              		.loc 1 372 29 is_stmt 1 view .LVU161
 375:Middlewares/Third_Party/FreeRTOS/Source/event_groups.c **** 			{
 530              		.loc 1 375 4 view .LVU162
 375:Middlewares/Third_Party/FreeRTOS/Source/event_groups.c **** 			{
 531              		.loc 1 375 6 is_stmt 0 view .LVU163
 532 00c2 0DB1     		cbz	r5, .L29
 377:Middlewares/Third_Party/FreeRTOS/Source/event_groups.c **** 			}
 533              		.loc 1 377 5 is_stmt 1 view .LVU164
 377:Middlewares/Third_Party/FreeRTOS/Source/event_groups.c **** 			}
 534              		.loc 1 377 19 is_stmt 0 view .LVU165
 535 00c4 41F08061 		orr	r1, r1, #67108864
 536              	.LVL39:
 537              	.L29:
 381:Middlewares/Third_Party/FreeRTOS/Source/event_groups.c **** 			}
 538              		.loc 1 381 29 is_stmt 1 view .LVU166
 387:Middlewares/Third_Party/FreeRTOS/Source/event_groups.c **** 
 539              		.loc 1 387 4 view .LVU167
 540 00c8 089A     		ldr	r2, [sp, #32]
 541 00ca 2143     		orrs	r1, r1, r4
 542              	.LVL40:
 387:Middlewares/Third_Party/FreeRTOS/Source/event_groups.c **** 
 543              		.loc 1 387 4 is_stmt 0 view .LVU168
 544 00cc 381D     		adds	r0, r7, #4
 545              	.LVL41:
 387:Middlewares/Third_Party/FreeRTOS/Source/event_groups.c **** 
 546              		.loc 1 387 4 view .LVU169
 547 00ce FFF7FEFF 		bl	vTaskPlaceOnUnorderedEventList
 548              	.LVL42:
 392:Middlewares/Third_Party/FreeRTOS/Source/event_groups.c **** 
 549              		.loc 1 392 4 is_stmt 1 view .LVU170
 392:Middlewares/Third_Party/FreeRTOS/Source/event_groups.c **** 
 550              		.loc 1 392 13 is_stmt 0 view .LVU171
 551 00d2 C146     		mov	r9, r8
 552              	.LVL43:
 387:Middlewares/Third_Party/FreeRTOS/Source/event_groups.c **** 
 553              		.loc 1 387 4 view .LVU172
 554 00d4 DDF82080 		ldr	r8, [sp, #32]
 555 00d8 D4E7     		b	.L27
 556              	.LVL44:
 557              	.L35:
 368:Middlewares/Third_Party/FreeRTOS/Source/event_groups.c **** 			}
ARM GAS  C:\Users\zhaohe\AppData\Local\Temp\ccBd5B9N.s 			page 29


 558              		.loc 1 368 19 view .LVU173
 559 00da 4FF08071 		mov	r1, #16777216
 560 00de F0E7     		b	.L28
 561              	.L34:
 562 00e0 DDF82080 		ldr	r8, [sp, #32]
 563 00e4 CEE7     		b	.L27
 564              	.LVL45:
 565              	.L38:
 368:Middlewares/Third_Party/FreeRTOS/Source/event_groups.c **** 			}
 566              		.loc 1 368 19 view .LVU174
 567              	.LBE52:
 418:Middlewares/Third_Party/FreeRTOS/Source/event_groups.c **** 			{
 568              		.loc 1 418 4 is_stmt 1 view .LVU175
 569 00e6 FFF7FEFF 		bl	vPortEnterCritical
 570              	.LVL46:
 421:Middlewares/Third_Party/FreeRTOS/Source/event_groups.c **** 
 571              		.loc 1 421 5 view .LVU176
 421:Middlewares/Third_Party/FreeRTOS/Source/event_groups.c **** 
 572              		.loc 1 421 14 is_stmt 0 view .LVU177
 573 00ea D7F80090 		ldr	r9, [r7]
 574              	.LVL47:
 425:Middlewares/Third_Party/FreeRTOS/Source/event_groups.c **** 				{
 575              		.loc 1 425 5 is_stmt 1 view .LVU178
 425:Middlewares/Third_Party/FreeRTOS/Source/event_groups.c **** 				{
 576              		.loc 1 425 9 is_stmt 0 view .LVU179
 577 00ee 2A46     		mov	r2, r5
 578 00f0 2146     		mov	r1, r4
 579 00f2 4846     		mov	r0, r9
 580 00f4 FFF7FEFF 		bl	prvTestWaitCondition
 581              	.LVL48:
 425:Middlewares/Third_Party/FreeRTOS/Source/event_groups.c **** 				{
 582              		.loc 1 425 7 view .LVU180
 583 00f8 18B1     		cbz	r0, .L33
 427:Middlewares/Third_Party/FreeRTOS/Source/event_groups.c **** 					{
 584              		.loc 1 427 6 is_stmt 1 view .LVU181
 427:Middlewares/Third_Party/FreeRTOS/Source/event_groups.c **** 					{
 585              		.loc 1 427 8 is_stmt 0 view .LVU182
 586 00fa 16B1     		cbz	r6, .L33
 429:Middlewares/Third_Party/FreeRTOS/Source/event_groups.c **** 					}
 587              		.loc 1 429 7 is_stmt 1 view .LVU183
 429:Middlewares/Third_Party/FreeRTOS/Source/event_groups.c **** 					}
 588              		.loc 1 429 32 is_stmt 0 view .LVU184
 589 00fc 29EA0404 		bic	r4, r9, r4
 590              	.LVL49:
 429:Middlewares/Third_Party/FreeRTOS/Source/event_groups.c **** 					}
 591              		.loc 1 429 32 view .LVU185
 592 0100 3C60     		str	r4, [r7]
 593              	.L33:
 438:Middlewares/Third_Party/FreeRTOS/Source/event_groups.c **** 				}
 594              		.loc 1 438 30 is_stmt 1 view .LVU186
 440:Middlewares/Third_Party/FreeRTOS/Source/event_groups.c **** 			}
 595              		.loc 1 440 5 view .LVU187
 596              	.LVL50:
 442:Middlewares/Third_Party/FreeRTOS/Source/event_groups.c **** 		}
 597              		.loc 1 442 4 view .LVU188
 598 0102 FFF7FEFF 		bl	vPortExitCritical
 599              	.LVL51:
ARM GAS  C:\Users\zhaohe\AppData\Local\Temp\ccBd5B9N.s 			page 30


 600 0106 D3E7     		b	.L32
 601              		.cfi_endproc
 602              	.LFE8:
 604              		.section	.text.xEventGroupClearBits,"ax",%progbits
 605              		.align	1
 606              		.global	xEventGroupClearBits
 607              		.syntax unified
 608              		.thumb
 609              		.thumb_func
 611              	xEventGroupClearBits:
 612              	.LVL52:
 613              	.LFB9:
 462:Middlewares/Third_Party/FreeRTOS/Source/event_groups.c **** EventGroup_t *pxEventBits = xEventGroup;
 614              		.loc 1 462 1 view -0
 615              		.cfi_startproc
 616              		@ args = 0, pretend = 0, frame = 0
 617              		@ frame_needed = 0, uses_anonymous_args = 0
 463:Middlewares/Third_Party/FreeRTOS/Source/event_groups.c **** EventBits_t uxReturn;
 618              		.loc 1 463 1 view .LVU190
 464:Middlewares/Third_Party/FreeRTOS/Source/event_groups.c **** 
 619              		.loc 1 464 1 view .LVU191
 468:Middlewares/Third_Party/FreeRTOS/Source/event_groups.c **** 	configASSERT( ( uxBitsToClear & eventEVENT_BITS_CONTROL_BYTES ) == 0 );
 620              		.loc 1 468 2 view .LVU192
 621 0000 70B1     		cbz	r0, .L46
 462:Middlewares/Third_Party/FreeRTOS/Source/event_groups.c **** EventGroup_t *pxEventBits = xEventGroup;
 622              		.loc 1 462 1 is_stmt 0 discriminator 2 view .LVU193
 623 0002 70B5     		push	{r4, r5, r6, lr}
 624              	.LCFI7:
 625              		.cfi_def_cfa_offset 16
 626              		.cfi_offset 4, -16
 627              		.cfi_offset 5, -12
 628              		.cfi_offset 6, -8
 629              		.cfi_offset 14, -4
 630 0004 0C46     		mov	r4, r1
 631 0006 0546     		mov	r5, r0
 468:Middlewares/Third_Party/FreeRTOS/Source/event_groups.c **** 	configASSERT( ( uxBitsToClear & eventEVENT_BITS_CONTROL_BYTES ) == 0 );
 632              		.loc 1 468 29 is_stmt 1 discriminator 2 view .LVU194
 469:Middlewares/Third_Party/FreeRTOS/Source/event_groups.c **** 
 633              		.loc 1 469 2 discriminator 2 view .LVU195
 634 0008 11F07F4F 		tst	r1, #-16777216
 635 000c 11D0     		beq	.L42
 469:Middlewares/Third_Party/FreeRTOS/Source/event_groups.c **** 
 636              		.loc 1 469 2 view .LVU196
 637              	.LBB53:
 638              	.LBI53:
 191:Middlewares/Third_Party/FreeRTOS/Source/portable/GCC/ARM_CM4F/portmacro.h **** {
 639              		.loc 2 191 30 view .LVU197
 640              	.LBB54:
 193:Middlewares/Third_Party/FreeRTOS/Source/portable/GCC/ARM_CM4F/portmacro.h **** 
 641              		.loc 2 193 1 view .LVU198
 642              		.loc 2 195 2 view .LVU199
 643              		.syntax unified
 644              	@ 195 "Middlewares/Third_Party/FreeRTOS/Source/portable/GCC/ARM_CM4F/portmacro.h" 1
 645 000e 4FF05003 			mov r3, #80												
 646 0012 83F31188 		msr basepri, r3											
 647 0016 BFF36F8F 		isb														
 648 001a BFF34F8F 		dsb														
ARM GAS  C:\Users\zhaohe\AppData\Local\Temp\ccBd5B9N.s 			page 31


 649              	
 650              	@ 0 "" 2
 651              	.LVL53:
 652              		.thumb
 653              		.syntax unified
 654              	.L43:
 655              		.loc 2 195 2 is_stmt 0 view .LVU200
 656              	.LBE54:
 657              	.LBE53:
 469:Middlewares/Third_Party/FreeRTOS/Source/event_groups.c **** 
 658              		.loc 1 469 2 is_stmt 1 discriminator 2 view .LVU201
 469:Middlewares/Third_Party/FreeRTOS/Source/event_groups.c **** 
 659              		.loc 1 469 2 discriminator 2 view .LVU202
 469:Middlewares/Third_Party/FreeRTOS/Source/event_groups.c **** 
 660              		.loc 1 469 2 discriminator 2 view .LVU203
 661 001e FEE7     		b	.L43
 662              	.L46:
 663              	.LCFI8:
 664              		.cfi_def_cfa_offset 0
 665              		.cfi_restore 4
 666              		.cfi_restore 5
 667              		.cfi_restore 6
 668              		.cfi_restore 14
 468:Middlewares/Third_Party/FreeRTOS/Source/event_groups.c **** 	configASSERT( ( uxBitsToClear & eventEVENT_BITS_CONTROL_BYTES ) == 0 );
 669              		.loc 1 468 2 view .LVU204
 670              	.LBB55:
 671              	.LBI55:
 191:Middlewares/Third_Party/FreeRTOS/Source/portable/GCC/ARM_CM4F/portmacro.h **** {
 672              		.loc 2 191 30 view .LVU205
 673              	.LBB56:
 193:Middlewares/Third_Party/FreeRTOS/Source/portable/GCC/ARM_CM4F/portmacro.h **** 
 674              		.loc 2 193 1 view .LVU206
 675              		.loc 2 195 2 view .LVU207
 676              		.syntax unified
 677              	@ 195 "Middlewares/Third_Party/FreeRTOS/Source/portable/GCC/ARM_CM4F/portmacro.h" 1
 678 0020 4FF05003 			mov r3, #80												
 679 0024 83F31188 		msr basepri, r3											
 680 0028 BFF36F8F 		isb														
 681 002c BFF34F8F 		dsb														
 682              	
 683              	@ 0 "" 2
 684              	.LVL54:
 685              		.thumb
 686              		.syntax unified
 687              	.L41:
 688              		.loc 2 195 2 is_stmt 0 view .LVU208
 689              	.LBE56:
 690              	.LBE55:
 468:Middlewares/Third_Party/FreeRTOS/Source/event_groups.c **** 	configASSERT( ( uxBitsToClear & eventEVENT_BITS_CONTROL_BYTES ) == 0 );
 691              		.loc 1 468 2 is_stmt 1 discriminator 1 view .LVU209
 468:Middlewares/Third_Party/FreeRTOS/Source/event_groups.c **** 	configASSERT( ( uxBitsToClear & eventEVENT_BITS_CONTROL_BYTES ) == 0 );
 692              		.loc 1 468 2 discriminator 1 view .LVU210
 468:Middlewares/Third_Party/FreeRTOS/Source/event_groups.c **** 	configASSERT( ( uxBitsToClear & eventEVENT_BITS_CONTROL_BYTES ) == 0 );
 693              		.loc 1 468 2 discriminator 1 view .LVU211
 694 0030 FEE7     		b	.L41
 695              	.L42:
 696              	.LCFI9:
ARM GAS  C:\Users\zhaohe\AppData\Local\Temp\ccBd5B9N.s 			page 32


 697              		.cfi_def_cfa_offset 16
 698              		.cfi_offset 4, -16
 699              		.cfi_offset 5, -12
 700              		.cfi_offset 6, -8
 701              		.cfi_offset 14, -4
 469:Middlewares/Third_Party/FreeRTOS/Source/event_groups.c **** 
 702              		.loc 1 469 72 discriminator 2 view .LVU212
 471:Middlewares/Third_Party/FreeRTOS/Source/event_groups.c **** 	{
 703              		.loc 1 471 2 discriminator 2 view .LVU213
 704 0032 FFF7FEFF 		bl	vPortEnterCritical
 705              	.LVL55:
 473:Middlewares/Third_Party/FreeRTOS/Source/event_groups.c **** 
 706              		.loc 1 473 60 discriminator 2 view .LVU214
 477:Middlewares/Third_Party/FreeRTOS/Source/event_groups.c **** 
 707              		.loc 1 477 3 discriminator 2 view .LVU215
 477:Middlewares/Third_Party/FreeRTOS/Source/event_groups.c **** 
 708              		.loc 1 477 12 is_stmt 0 discriminator 2 view .LVU216
 709 0036 2E68     		ldr	r6, [r5]
 710              	.LVL56:
 480:Middlewares/Third_Party/FreeRTOS/Source/event_groups.c **** 	}
 711              		.loc 1 480 3 is_stmt 1 discriminator 2 view .LVU217
 480:Middlewares/Third_Party/FreeRTOS/Source/event_groups.c **** 	}
 712              		.loc 1 480 28 is_stmt 0 discriminator 2 view .LVU218
 713 0038 26EA0404 		bic	r4, r6, r4
 714              	.LVL57:
 480:Middlewares/Third_Party/FreeRTOS/Source/event_groups.c **** 	}
 715              		.loc 1 480 28 discriminator 2 view .LVU219
 716 003c 2C60     		str	r4, [r5]
 482:Middlewares/Third_Party/FreeRTOS/Source/event_groups.c **** 
 717              		.loc 1 482 2 is_stmt 1 discriminator 2 view .LVU220
 718 003e FFF7FEFF 		bl	vPortExitCritical
 719              	.LVL58:
 484:Middlewares/Third_Party/FreeRTOS/Source/event_groups.c **** }
 720              		.loc 1 484 2 discriminator 2 view .LVU221
 485:Middlewares/Third_Party/FreeRTOS/Source/event_groups.c **** /*-----------------------------------------------------------*/
 721              		.loc 1 485 1 is_stmt 0 discriminator 2 view .LVU222
 722 0042 3046     		mov	r0, r6
 723 0044 70BD     		pop	{r4, r5, r6, pc}
 485:Middlewares/Third_Party/FreeRTOS/Source/event_groups.c **** /*-----------------------------------------------------------*/
 724              		.loc 1 485 1 discriminator 2 view .LVU223
 725              		.cfi_endproc
 726              	.LFE9:
 728              		.section	.text.xEventGroupGetBitsFromISR,"ax",%progbits
 729              		.align	1
 730              		.global	xEventGroupGetBitsFromISR
 731              		.syntax unified
 732              		.thumb
 733              		.thumb_func
 735              	xEventGroupGetBitsFromISR:
 736              	.LVL59:
 737              	.LFB10:
 504:Middlewares/Third_Party/FreeRTOS/Source/event_groups.c **** UBaseType_t uxSavedInterruptStatus;
 738              		.loc 1 504 1 is_stmt 1 view -0
 739              		.cfi_startproc
 740              		@ args = 0, pretend = 0, frame = 0
 741              		@ frame_needed = 0, uses_anonymous_args = 0
 742              		@ link register save eliminated.
ARM GAS  C:\Users\zhaohe\AppData\Local\Temp\ccBd5B9N.s 			page 33


 505:Middlewares/Third_Party/FreeRTOS/Source/event_groups.c **** EventGroup_t const * const pxEventBits = xEventGroup;
 743              		.loc 1 505 1 view .LVU225
 506:Middlewares/Third_Party/FreeRTOS/Source/event_groups.c **** EventBits_t uxReturn;
 744              		.loc 1 506 1 view .LVU226
 507:Middlewares/Third_Party/FreeRTOS/Source/event_groups.c **** 
 745              		.loc 1 507 1 view .LVU227
 509:Middlewares/Third_Party/FreeRTOS/Source/event_groups.c **** 	{
 746              		.loc 1 509 2 view .LVU228
 747              	.LBB57:
 748              	.LBI57:
 196:Middlewares/Third_Party/FreeRTOS/Source/portable/GCC/ARM_CM4F/portmacro.h **** 	(
 197:Middlewares/Third_Party/FreeRTOS/Source/portable/GCC/ARM_CM4F/portmacro.h **** 		"	mov %0, %1												\n"	\
 198:Middlewares/Third_Party/FreeRTOS/Source/portable/GCC/ARM_CM4F/portmacro.h **** 		"	msr basepri, %0											\n" \
 199:Middlewares/Third_Party/FreeRTOS/Source/portable/GCC/ARM_CM4F/portmacro.h **** 		"	isb														\n" \
 200:Middlewares/Third_Party/FreeRTOS/Source/portable/GCC/ARM_CM4F/portmacro.h **** 		"	dsb														\n" \
 201:Middlewares/Third_Party/FreeRTOS/Source/portable/GCC/ARM_CM4F/portmacro.h **** 		:"=r" (ulNewBASEPRI) : "i" ( configMAX_SYSCALL_INTERRUPT_PRIORITY ) : "memory"
 202:Middlewares/Third_Party/FreeRTOS/Source/portable/GCC/ARM_CM4F/portmacro.h **** 	);
 203:Middlewares/Third_Party/FreeRTOS/Source/portable/GCC/ARM_CM4F/portmacro.h **** }
 204:Middlewares/Third_Party/FreeRTOS/Source/portable/GCC/ARM_CM4F/portmacro.h **** 
 205:Middlewares/Third_Party/FreeRTOS/Source/portable/GCC/ARM_CM4F/portmacro.h **** /*-----------------------------------------------------------*/
 206:Middlewares/Third_Party/FreeRTOS/Source/portable/GCC/ARM_CM4F/portmacro.h **** 
 207:Middlewares/Third_Party/FreeRTOS/Source/portable/GCC/ARM_CM4F/portmacro.h **** portFORCE_INLINE static uint32_t ulPortRaiseBASEPRI( void )
 749              		.loc 2 207 34 view .LVU229
 750              	.LBB58:
 208:Middlewares/Third_Party/FreeRTOS/Source/portable/GCC/ARM_CM4F/portmacro.h **** {
 209:Middlewares/Third_Party/FreeRTOS/Source/portable/GCC/ARM_CM4F/portmacro.h **** uint32_t ulOriginalBASEPRI, ulNewBASEPRI;
 751              		.loc 2 209 1 view .LVU230
 210:Middlewares/Third_Party/FreeRTOS/Source/portable/GCC/ARM_CM4F/portmacro.h **** 
 211:Middlewares/Third_Party/FreeRTOS/Source/portable/GCC/ARM_CM4F/portmacro.h **** 	__asm volatile
 752              		.loc 2 211 2 view .LVU231
 753              		.syntax unified
 754              	@ 211 "Middlewares/Third_Party/FreeRTOS/Source/portable/GCC/ARM_CM4F/portmacro.h" 1
 755 0000 EFF31183 			mrs r3, basepri											
 756 0004 4FF05002 		mov r2, #80												
 757 0008 82F31188 		msr basepri, r2											
 758 000c BFF36F8F 		isb														
 759 0010 BFF34F8F 		dsb														
 760              	
 761              	@ 0 "" 2
 762              	.LVL60:
 212:Middlewares/Third_Party/FreeRTOS/Source/portable/GCC/ARM_CM4F/portmacro.h **** 	(
 213:Middlewares/Third_Party/FreeRTOS/Source/portable/GCC/ARM_CM4F/portmacro.h **** 		"	mrs %0, basepri											\n" \
 214:Middlewares/Third_Party/FreeRTOS/Source/portable/GCC/ARM_CM4F/portmacro.h **** 		"	mov %1, %2												\n"	\
 215:Middlewares/Third_Party/FreeRTOS/Source/portable/GCC/ARM_CM4F/portmacro.h **** 		"	msr basepri, %1											\n" \
 216:Middlewares/Third_Party/FreeRTOS/Source/portable/GCC/ARM_CM4F/portmacro.h **** 		"	isb														\n" \
 217:Middlewares/Third_Party/FreeRTOS/Source/portable/GCC/ARM_CM4F/portmacro.h **** 		"	dsb														\n" \
 218:Middlewares/Third_Party/FreeRTOS/Source/portable/GCC/ARM_CM4F/portmacro.h **** 		:"=r" (ulOriginalBASEPRI), "=r" (ulNewBASEPRI) : "i" ( configMAX_SYSCALL_INTERRUPT_PRIORITY ) : "
 219:Middlewares/Third_Party/FreeRTOS/Source/portable/GCC/ARM_CM4F/portmacro.h **** 	);
 220:Middlewares/Third_Party/FreeRTOS/Source/portable/GCC/ARM_CM4F/portmacro.h **** 
 221:Middlewares/Third_Party/FreeRTOS/Source/portable/GCC/ARM_CM4F/portmacro.h **** 	/* This return will not be reached but is necessary to prevent compiler
 222:Middlewares/Third_Party/FreeRTOS/Source/portable/GCC/ARM_CM4F/portmacro.h **** 	warnings. */
 223:Middlewares/Third_Party/FreeRTOS/Source/portable/GCC/ARM_CM4F/portmacro.h **** 	return ulOriginalBASEPRI;
 763              		.loc 2 223 2 view .LVU232
 764              		.loc 2 223 2 is_stmt 0 view .LVU233
 765              		.thumb
 766              		.syntax unified
 767              	.LBE58:
ARM GAS  C:\Users\zhaohe\AppData\Local\Temp\ccBd5B9N.s 			page 34


 768              	.LBE57:
 511:Middlewares/Third_Party/FreeRTOS/Source/event_groups.c **** 	}
 769              		.loc 1 511 3 is_stmt 1 view .LVU234
 511:Middlewares/Third_Party/FreeRTOS/Source/event_groups.c **** 	}
 770              		.loc 1 511 12 is_stmt 0 view .LVU235
 771 0014 0068     		ldr	r0, [r0]
 772              	.LVL61:
 513:Middlewares/Third_Party/FreeRTOS/Source/event_groups.c **** 
 773              		.loc 1 513 2 is_stmt 1 view .LVU236
 774              	.LBB59:
 775              	.LBI59:
 224:Middlewares/Third_Party/FreeRTOS/Source/portable/GCC/ARM_CM4F/portmacro.h **** }
 225:Middlewares/Third_Party/FreeRTOS/Source/portable/GCC/ARM_CM4F/portmacro.h **** /*-----------------------------------------------------------*/
 226:Middlewares/Third_Party/FreeRTOS/Source/portable/GCC/ARM_CM4F/portmacro.h **** 
 227:Middlewares/Third_Party/FreeRTOS/Source/portable/GCC/ARM_CM4F/portmacro.h **** portFORCE_INLINE static void vPortSetBASEPRI( uint32_t ulNewMaskValue )
 776              		.loc 2 227 30 view .LVU237
 777              	.LBB60:
 228:Middlewares/Third_Party/FreeRTOS/Source/portable/GCC/ARM_CM4F/portmacro.h **** {
 229:Middlewares/Third_Party/FreeRTOS/Source/portable/GCC/ARM_CM4F/portmacro.h **** 	__asm volatile
 778              		.loc 2 229 2 view .LVU238
 779              		.syntax unified
 780              	@ 229 "Middlewares/Third_Party/FreeRTOS/Source/portable/GCC/ARM_CM4F/portmacro.h" 1
 781 0016 83F31188 			msr basepri, r3	
 782              	@ 0 "" 2
 783              	.LVL62:
 784              		.loc 2 229 2 is_stmt 0 view .LVU239
 785              		.thumb
 786              		.syntax unified
 787              	.LBE60:
 788              	.LBE59:
 515:Middlewares/Third_Party/FreeRTOS/Source/event_groups.c **** } /*lint !e818 EventGroupHandle_t is a typedef used in other functions to so can't be pointer to co
 789              		.loc 1 515 2 is_stmt 1 view .LVU240
 516:Middlewares/Third_Party/FreeRTOS/Source/event_groups.c **** /*-----------------------------------------------------------*/
 790              		.loc 1 516 1 is_stmt 0 view .LVU241
 791 001a 7047     		bx	lr
 792              		.cfi_endproc
 793              	.LFE10:
 795              		.section	.text.xEventGroupSetBits,"ax",%progbits
 796              		.align	1
 797              		.global	xEventGroupSetBits
 798              		.syntax unified
 799              		.thumb
 800              		.thumb_func
 802              	xEventGroupSetBits:
 803              	.LVL63:
 804              	.LFB11:
 520:Middlewares/Third_Party/FreeRTOS/Source/event_groups.c **** ListItem_t *pxListItem, *pxNext;
 805              		.loc 1 520 1 is_stmt 1 view -0
 806              		.cfi_startproc
 807              		@ args = 0, pretend = 0, frame = 0
 808              		@ frame_needed = 0, uses_anonymous_args = 0
 520:Middlewares/Third_Party/FreeRTOS/Source/event_groups.c **** ListItem_t *pxListItem, *pxNext;
 809              		.loc 1 520 1 is_stmt 0 view .LVU243
 810 0000 F8B5     		push	{r3, r4, r5, r6, r7, lr}
 811              	.LCFI10:
 812              		.cfi_def_cfa_offset 24
 813              		.cfi_offset 3, -24
ARM GAS  C:\Users\zhaohe\AppData\Local\Temp\ccBd5B9N.s 			page 35


 814              		.cfi_offset 4, -20
 815              		.cfi_offset 5, -16
 816              		.cfi_offset 6, -12
 817              		.cfi_offset 7, -8
 818              		.cfi_offset 14, -4
 521:Middlewares/Third_Party/FreeRTOS/Source/event_groups.c **** ListItem_t const *pxListEnd;
 819              		.loc 1 521 1 is_stmt 1 view .LVU244
 522:Middlewares/Third_Party/FreeRTOS/Source/event_groups.c **** List_t const * pxList;
 820              		.loc 1 522 1 view .LVU245
 523:Middlewares/Third_Party/FreeRTOS/Source/event_groups.c **** EventBits_t uxBitsToClear = 0, uxBitsWaitedFor, uxControlBits;
 821              		.loc 1 523 1 view .LVU246
 524:Middlewares/Third_Party/FreeRTOS/Source/event_groups.c **** EventGroup_t *pxEventBits = xEventGroup;
 822              		.loc 1 524 1 view .LVU247
 823              	.LVL64:
 525:Middlewares/Third_Party/FreeRTOS/Source/event_groups.c **** BaseType_t xMatchFound = pdFALSE;
 824              		.loc 1 525 1 view .LVU248
 526:Middlewares/Third_Party/FreeRTOS/Source/event_groups.c **** 
 825              		.loc 1 526 1 view .LVU249
 530:Middlewares/Third_Party/FreeRTOS/Source/event_groups.c **** 	configASSERT( ( uxBitsToSet & eventEVENT_BITS_CONTROL_BYTES ) == 0 );
 826              		.loc 1 530 2 view .LVU250
 827 0002 68B1     		cbz	r0, .L60
 828 0004 0D46     		mov	r5, r1
 829 0006 0446     		mov	r4, r0
 530:Middlewares/Third_Party/FreeRTOS/Source/event_groups.c **** 	configASSERT( ( uxBitsToSet & eventEVENT_BITS_CONTROL_BYTES ) == 0 );
 830              		.loc 1 530 29 discriminator 2 view .LVU251
 531:Middlewares/Third_Party/FreeRTOS/Source/event_groups.c **** 
 831              		.loc 1 531 2 discriminator 2 view .LVU252
 832 0008 11F07F47 		ands	r7, r1, #-16777216
 833 000c 11D0     		beq	.L51
 531:Middlewares/Third_Party/FreeRTOS/Source/event_groups.c **** 
 834              		.loc 1 531 2 view .LVU253
 835              	.LBB61:
 836              	.LBI61:
 191:Middlewares/Third_Party/FreeRTOS/Source/portable/GCC/ARM_CM4F/portmacro.h **** {
 837              		.loc 2 191 30 view .LVU254
 838              	.LBB62:
 193:Middlewares/Third_Party/FreeRTOS/Source/portable/GCC/ARM_CM4F/portmacro.h **** 
 839              		.loc 2 193 1 view .LVU255
 195:Middlewares/Third_Party/FreeRTOS/Source/portable/GCC/ARM_CM4F/portmacro.h **** 	(
 840              		.loc 2 195 2 view .LVU256
 841              		.syntax unified
 842              	@ 195 "Middlewares/Third_Party/FreeRTOS/Source/portable/GCC/ARM_CM4F/portmacro.h" 1
 843 000e 4FF05003 			mov r3, #80												
 844 0012 83F31188 		msr basepri, r3											
 845 0016 BFF36F8F 		isb														
 846 001a BFF34F8F 		dsb														
 847              	
 848              	@ 0 "" 2
 849              	.LVL65:
 850              		.thumb
 851              		.syntax unified
 852              	.L52:
 195:Middlewares/Third_Party/FreeRTOS/Source/portable/GCC/ARM_CM4F/portmacro.h **** 	(
 853              		.loc 2 195 2 is_stmt 0 view .LVU257
 854              	.LBE62:
 855              	.LBE61:
 531:Middlewares/Third_Party/FreeRTOS/Source/event_groups.c **** 
ARM GAS  C:\Users\zhaohe\AppData\Local\Temp\ccBd5B9N.s 			page 36


 856              		.loc 1 531 2 is_stmt 1 discriminator 2 view .LVU258
 531:Middlewares/Third_Party/FreeRTOS/Source/event_groups.c **** 
 857              		.loc 1 531 2 discriminator 2 view .LVU259
 531:Middlewares/Third_Party/FreeRTOS/Source/event_groups.c **** 
 858              		.loc 1 531 2 discriminator 2 view .LVU260
 859 001e FEE7     		b	.L52
 860              	.L60:
 530:Middlewares/Third_Party/FreeRTOS/Source/event_groups.c **** 	configASSERT( ( uxBitsToSet & eventEVENT_BITS_CONTROL_BYTES ) == 0 );
 861              		.loc 1 530 2 view .LVU261
 862              	.LBB63:
 863              	.LBI63:
 191:Middlewares/Third_Party/FreeRTOS/Source/portable/GCC/ARM_CM4F/portmacro.h **** {
 864              		.loc 2 191 30 view .LVU262
 865              	.LBB64:
 193:Middlewares/Third_Party/FreeRTOS/Source/portable/GCC/ARM_CM4F/portmacro.h **** 
 866              		.loc 2 193 1 view .LVU263
 195:Middlewares/Third_Party/FreeRTOS/Source/portable/GCC/ARM_CM4F/portmacro.h **** 	(
 867              		.loc 2 195 2 view .LVU264
 868              		.syntax unified
 869              	@ 195 "Middlewares/Third_Party/FreeRTOS/Source/portable/GCC/ARM_CM4F/portmacro.h" 1
 870 0020 4FF05003 			mov r3, #80												
 871 0024 83F31188 		msr basepri, r3											
 872 0028 BFF36F8F 		isb														
 873 002c BFF34F8F 		dsb														
 874              	
 875              	@ 0 "" 2
 876              	.LVL66:
 877              		.thumb
 878              		.syntax unified
 879              	.L50:
 195:Middlewares/Third_Party/FreeRTOS/Source/portable/GCC/ARM_CM4F/portmacro.h **** 	(
 880              		.loc 2 195 2 is_stmt 0 view .LVU265
 881              	.LBE64:
 882              	.LBE63:
 530:Middlewares/Third_Party/FreeRTOS/Source/event_groups.c **** 	configASSERT( ( uxBitsToSet & eventEVENT_BITS_CONTROL_BYTES ) == 0 );
 883              		.loc 1 530 2 is_stmt 1 discriminator 1 view .LVU266
 530:Middlewares/Third_Party/FreeRTOS/Source/event_groups.c **** 	configASSERT( ( uxBitsToSet & eventEVENT_BITS_CONTROL_BYTES ) == 0 );
 884              		.loc 1 530 2 discriminator 1 view .LVU267
 530:Middlewares/Third_Party/FreeRTOS/Source/event_groups.c **** 	configASSERT( ( uxBitsToSet & eventEVENT_BITS_CONTROL_BYTES ) == 0 );
 885              		.loc 1 530 2 discriminator 1 view .LVU268
 886 0030 FEE7     		b	.L50
 887              	.L51:
 531:Middlewares/Third_Party/FreeRTOS/Source/event_groups.c **** 
 888              		.loc 1 531 70 discriminator 2 view .LVU269
 533:Middlewares/Third_Party/FreeRTOS/Source/event_groups.c **** 	pxListEnd = listGET_END_MARKER( pxList ); /*lint !e826 !e740 !e9087 The mini list structure is use
 889              		.loc 1 533 2 discriminator 2 view .LVU270
 890              	.LVL67:
 534:Middlewares/Third_Party/FreeRTOS/Source/event_groups.c **** 	vTaskSuspendAll();
 891              		.loc 1 534 2 discriminator 2 view .LVU271
 534:Middlewares/Third_Party/FreeRTOS/Source/event_groups.c **** 	vTaskSuspendAll();
 892              		.loc 1 534 12 is_stmt 0 discriminator 2 view .LVU272
 893 0032 00F10C06 		add	r6, r0, #12
 894              	.LVL68:
 535:Middlewares/Third_Party/FreeRTOS/Source/event_groups.c **** 	{
 895              		.loc 1 535 2 is_stmt 1 discriminator 2 view .LVU273
 896 0036 FFF7FEFF 		bl	vTaskSuspendAll
 897              	.LVL69:
ARM GAS  C:\Users\zhaohe\AppData\Local\Temp\ccBd5B9N.s 			page 37


 537:Middlewares/Third_Party/FreeRTOS/Source/event_groups.c **** 
 898              		.loc 1 537 56 discriminator 2 view .LVU274
 539:Middlewares/Third_Party/FreeRTOS/Source/event_groups.c **** 
 899              		.loc 1 539 3 discriminator 2 view .LVU275
 539:Middlewares/Third_Party/FreeRTOS/Source/event_groups.c **** 
 900              		.loc 1 539 14 is_stmt 0 discriminator 2 view .LVU276
 901 003a 2069     		ldr	r0, [r4, #16]
 902              	.LVL70:
 542:Middlewares/Third_Party/FreeRTOS/Source/event_groups.c **** 
 903              		.loc 1 542 3 is_stmt 1 discriminator 2 view .LVU277
 542:Middlewares/Third_Party/FreeRTOS/Source/event_groups.c **** 
 904              		.loc 1 542 28 is_stmt 0 discriminator 2 view .LVU278
 905 003c 2368     		ldr	r3, [r4]
 906 003e 2B43     		orrs	r3, r3, r5
 907 0040 2360     		str	r3, [r4]
 545:Middlewares/Third_Party/FreeRTOS/Source/event_groups.c **** 		{
 908              		.loc 1 545 3 is_stmt 1 discriminator 2 view .LVU279
 545:Middlewares/Third_Party/FreeRTOS/Source/event_groups.c **** 		{
 909              		.loc 1 545 8 is_stmt 0 discriminator 2 view .LVU280
 910 0042 0AE0     		b	.L53
 911              	.LVL71:
 912              	.L54:
 567:Middlewares/Third_Party/FreeRTOS/Source/event_groups.c **** 			{
 913              		.loc 1 567 9 is_stmt 1 view .LVU281
 567:Middlewares/Third_Party/FreeRTOS/Source/event_groups.c **** 			{
 914              		.loc 1 567 44 is_stmt 0 view .LVU282
 915 0044 2168     		ldr	r1, [r4]
 567:Middlewares/Third_Party/FreeRTOS/Source/event_groups.c **** 			{
 916              		.loc 1 567 11 view .LVU283
 917 0046 32EA0101 		bics	r1, r2, r1
 918 004a 05D1     		bne	.L56
 567:Middlewares/Third_Party/FreeRTOS/Source/event_groups.c **** 			{
 919              		.loc 1 567 11 view .LVU284
 920 004c 11E0     		b	.L55
 921              	.LVL72:
 922              	.L57:
 586:Middlewares/Third_Party/FreeRTOS/Source/event_groups.c **** 				}
 923              		.loc 1 586 30 is_stmt 1 view .LVU285
 594:Middlewares/Third_Party/FreeRTOS/Source/event_groups.c **** 			}
 924              		.loc 1 594 5 view .LVU286
 594:Middlewares/Third_Party/FreeRTOS/Source/event_groups.c **** 			}
 925              		.loc 1 594 63 is_stmt 0 view .LVU287
 926 004e 2168     		ldr	r1, [r4]
 594:Middlewares/Third_Party/FreeRTOS/Source/event_groups.c **** 			}
 927              		.loc 1 594 5 view .LVU288
 928 0050 41F00071 		orr	r1, r1, #33554432
 929 0054 FFF7FEFF 		bl	vTaskRemoveFromUnorderedEventList
 930              	.LVL73:
 931              	.L56:
 520:Middlewares/Third_Party/FreeRTOS/Source/event_groups.c **** ListItem_t *pxListItem, *pxNext;
 932              		.loc 1 520 1 view .LVU289
 933 0058 2846     		mov	r0, r5
 934              	.LVL74:
 935              	.L53:
 545:Middlewares/Third_Party/FreeRTOS/Source/event_groups.c **** 		{
 936              		.loc 1 545 8 is_stmt 1 view .LVU290
 937 005a B042     		cmp	r0, r6
ARM GAS  C:\Users\zhaohe\AppData\Local\Temp\ccBd5B9N.s 			page 38


 938 005c 0ED0     		beq	.L61
 547:Middlewares/Third_Party/FreeRTOS/Source/event_groups.c **** 			uxBitsWaitedFor = listGET_LIST_ITEM_VALUE( pxListItem );
 939              		.loc 1 547 4 view .LVU291
 547:Middlewares/Third_Party/FreeRTOS/Source/event_groups.c **** 			uxBitsWaitedFor = listGET_LIST_ITEM_VALUE( pxListItem );
 940              		.loc 1 547 11 is_stmt 0 view .LVU292
 941 005e 4568     		ldr	r5, [r0, #4]
 942              	.LVL75:
 548:Middlewares/Third_Party/FreeRTOS/Source/event_groups.c **** 			xMatchFound = pdFALSE;
 943              		.loc 1 548 4 is_stmt 1 view .LVU293
 548:Middlewares/Third_Party/FreeRTOS/Source/event_groups.c **** 			xMatchFound = pdFALSE;
 944              		.loc 1 548 20 is_stmt 0 view .LVU294
 945 0060 0368     		ldr	r3, [r0]
 946              	.LVL76:
 549:Middlewares/Third_Party/FreeRTOS/Source/event_groups.c **** 
 947              		.loc 1 549 4 is_stmt 1 view .LVU295
 552:Middlewares/Third_Party/FreeRTOS/Source/event_groups.c **** 			uxBitsWaitedFor &= ~eventEVENT_BITS_CONTROL_BYTES;
 948              		.loc 1 552 4 view .LVU296
 553:Middlewares/Third_Party/FreeRTOS/Source/event_groups.c **** 
 949              		.loc 1 553 4 view .LVU297
 553:Middlewares/Third_Party/FreeRTOS/Source/event_groups.c **** 
 950              		.loc 1 553 20 is_stmt 0 view .LVU298
 951 0062 23F07F42 		bic	r2, r3, #-16777216
 952              	.LVL77:
 555:Middlewares/Third_Party/FreeRTOS/Source/event_groups.c **** 			{
 953              		.loc 1 555 4 is_stmt 1 view .LVU299
 555:Middlewares/Third_Party/FreeRTOS/Source/event_groups.c **** 			{
 954              		.loc 1 555 6 is_stmt 0 view .LVU300
 955 0066 13F0806F 		tst	r3, #67108864
 956 006a EBD1     		bne	.L54
 558:Middlewares/Third_Party/FreeRTOS/Source/event_groups.c **** 				{
 957              		.loc 1 558 5 is_stmt 1 view .LVU301
 558:Middlewares/Third_Party/FreeRTOS/Source/event_groups.c **** 				{
 958              		.loc 1 558 40 is_stmt 0 view .LVU302
 959 006c 2168     		ldr	r1, [r4]
 558:Middlewares/Third_Party/FreeRTOS/Source/event_groups.c **** 				{
 960              		.loc 1 558 7 view .LVU303
 961 006e 1142     		tst	r1, r2
 962 0070 F2D0     		beq	.L56
 963              	.L55:
 964              	.LVL78:
 580:Middlewares/Third_Party/FreeRTOS/Source/event_groups.c **** 				{
 965              		.loc 1 580 5 is_stmt 1 view .LVU304
 580:Middlewares/Third_Party/FreeRTOS/Source/event_groups.c **** 				{
 966              		.loc 1 580 7 is_stmt 0 view .LVU305
 967 0072 13F0807F 		tst	r3, #16777216
 968 0076 EAD0     		beq	.L57
 582:Middlewares/Third_Party/FreeRTOS/Source/event_groups.c **** 				}
 969              		.loc 1 582 6 is_stmt 1 view .LVU306
 582:Middlewares/Third_Party/FreeRTOS/Source/event_groups.c **** 				}
 970              		.loc 1 582 20 is_stmt 0 view .LVU307
 971 0078 1743     		orrs	r7, r7, r2
 972              	.LVL79:
 582:Middlewares/Third_Party/FreeRTOS/Source/event_groups.c **** 				}
 973              		.loc 1 582 20 view .LVU308
 974 007a E8E7     		b	.L57
 975              	.LVL80:
 976              	.L61:
ARM GAS  C:\Users\zhaohe\AppData\Local\Temp\ccBd5B9N.s 			page 39


 605:Middlewares/Third_Party/FreeRTOS/Source/event_groups.c **** 	}
 977              		.loc 1 605 3 is_stmt 1 view .LVU309
 605:Middlewares/Third_Party/FreeRTOS/Source/event_groups.c **** 	}
 978              		.loc 1 605 28 is_stmt 0 view .LVU310
 979 007c 2368     		ldr	r3, [r4]
 980 007e 23EA0703 		bic	r3, r3, r7
 981 0082 2360     		str	r3, [r4]
 607:Middlewares/Third_Party/FreeRTOS/Source/event_groups.c **** 
 982              		.loc 1 607 2 is_stmt 1 view .LVU311
 607:Middlewares/Third_Party/FreeRTOS/Source/event_groups.c **** 
 983              		.loc 1 607 11 is_stmt 0 view .LVU312
 984 0084 FFF7FEFF 		bl	xTaskResumeAll
 985              	.LVL81:
 609:Middlewares/Third_Party/FreeRTOS/Source/event_groups.c **** }
 986              		.loc 1 609 2 is_stmt 1 view .LVU313
 610:Middlewares/Third_Party/FreeRTOS/Source/event_groups.c **** /*-----------------------------------------------------------*/
 987              		.loc 1 610 1 is_stmt 0 view .LVU314
 988 0088 2068     		ldr	r0, [r4]
 989 008a F8BD     		pop	{r3, r4, r5, r6, r7, pc}
 610:Middlewares/Third_Party/FreeRTOS/Source/event_groups.c **** /*-----------------------------------------------------------*/
 990              		.loc 1 610 1 view .LVU315
 991              		.cfi_endproc
 992              	.LFE11:
 994              		.section	.text.xEventGroupSync,"ax",%progbits
 995              		.align	1
 996              		.global	xEventGroupSync
 997              		.syntax unified
 998              		.thumb
 999              		.thumb_func
 1001              	xEventGroupSync:
 1002              	.LVL82:
 1003              	.LFB7:
 192:Middlewares/Third_Party/FreeRTOS/Source/event_groups.c **** EventBits_t uxOriginalBitValue, uxReturn;
 1004              		.loc 1 192 1 is_stmt 1 view -0
 1005              		.cfi_startproc
 1006              		@ args = 0, pretend = 0, frame = 0
 1007              		@ frame_needed = 0, uses_anonymous_args = 0
 192:Middlewares/Third_Party/FreeRTOS/Source/event_groups.c **** EventBits_t uxOriginalBitValue, uxReturn;
 1008              		.loc 1 192 1 is_stmt 0 view .LVU317
 1009 0000 2DE9F843 		push	{r3, r4, r5, r6, r7, r8, r9, lr}
 1010              	.LCFI11:
 1011              		.cfi_def_cfa_offset 32
 1012              		.cfi_offset 3, -32
 1013              		.cfi_offset 4, -28
 1014              		.cfi_offset 5, -24
 1015              		.cfi_offset 6, -20
 1016              		.cfi_offset 7, -16
 1017              		.cfi_offset 8, -12
 1018              		.cfi_offset 9, -8
 1019              		.cfi_offset 14, -4
 193:Middlewares/Third_Party/FreeRTOS/Source/event_groups.c **** EventGroup_t *pxEventBits = xEventGroup;
 1020              		.loc 1 193 1 is_stmt 1 view .LVU318
 194:Middlewares/Third_Party/FreeRTOS/Source/event_groups.c **** BaseType_t xAlreadyYielded;
 1021              		.loc 1 194 1 view .LVU319
 1022              	.LVL83:
 195:Middlewares/Third_Party/FreeRTOS/Source/event_groups.c **** BaseType_t xTimeoutOccurred = pdFALSE;
 1023              		.loc 1 195 1 view .LVU320
ARM GAS  C:\Users\zhaohe\AppData\Local\Temp\ccBd5B9N.s 			page 40


 196:Middlewares/Third_Party/FreeRTOS/Source/event_groups.c **** 
 1024              		.loc 1 196 1 view .LVU321
 198:Middlewares/Third_Party/FreeRTOS/Source/event_groups.c **** 	configASSERT( uxBitsToWaitFor != 0 );
 1025              		.loc 1 198 2 view .LVU322
 1026 0004 12F07F48 		ands	r8, r2, #-16777216
 1027 0008 08D0     		beq	.L63
 198:Middlewares/Third_Party/FreeRTOS/Source/event_groups.c **** 	configASSERT( uxBitsToWaitFor != 0 );
 1028              		.loc 1 198 2 view .LVU323
 1029              	.LBB65:
 1030              	.LBI65:
 191:Middlewares/Third_Party/FreeRTOS/Source/portable/GCC/ARM_CM4F/portmacro.h **** {
 1031              		.loc 2 191 30 view .LVU324
 1032              	.LBB66:
 193:Middlewares/Third_Party/FreeRTOS/Source/portable/GCC/ARM_CM4F/portmacro.h **** 
 1033              		.loc 2 193 1 view .LVU325
 195:Middlewares/Third_Party/FreeRTOS/Source/portable/GCC/ARM_CM4F/portmacro.h **** 	(
 1034              		.loc 2 195 2 view .LVU326
 1035              		.syntax unified
 1036              	@ 195 "Middlewares/Third_Party/FreeRTOS/Source/portable/GCC/ARM_CM4F/portmacro.h" 1
 1037 000a 4FF05003 			mov r3, #80												
 1038 000e 83F31188 		msr basepri, r3											
 1039 0012 BFF36F8F 		isb														
 1040 0016 BFF34F8F 		dsb														
 1041              	
 1042              	@ 0 "" 2
 1043              	.LVL84:
 1044              		.thumb
 1045              		.syntax unified
 1046              	.L64:
 195:Middlewares/Third_Party/FreeRTOS/Source/portable/GCC/ARM_CM4F/portmacro.h **** 	(
 1047              		.loc 2 195 2 is_stmt 0 view .LVU327
 1048              	.LBE66:
 1049              	.LBE65:
 198:Middlewares/Third_Party/FreeRTOS/Source/event_groups.c **** 	configASSERT( uxBitsToWaitFor != 0 );
 1050              		.loc 1 198 2 is_stmt 1 discriminator 1 view .LVU328
 198:Middlewares/Third_Party/FreeRTOS/Source/event_groups.c **** 	configASSERT( uxBitsToWaitFor != 0 );
 1051              		.loc 1 198 2 discriminator 1 view .LVU329
 198:Middlewares/Third_Party/FreeRTOS/Source/event_groups.c **** 	configASSERT( uxBitsToWaitFor != 0 );
 1052              		.loc 1 198 2 discriminator 1 view .LVU330
 1053 001a FEE7     		b	.L64
 1054              	.LVL85:
 1055              	.L63:
 198:Middlewares/Third_Party/FreeRTOS/Source/event_groups.c **** 	configASSERT( uxBitsToWaitFor != 0 );
 1056              		.loc 1 198 2 is_stmt 0 discriminator 1 view .LVU331
 1057 001c 0746     		mov	r7, r0
 1058 001e 0E46     		mov	r6, r1
 1059 0020 1446     		mov	r4, r2
 1060 0022 1D46     		mov	r5, r3
 198:Middlewares/Third_Party/FreeRTOS/Source/event_groups.c **** 	configASSERT( uxBitsToWaitFor != 0 );
 1061              		.loc 1 198 74 is_stmt 1 discriminator 2 view .LVU332
 199:Middlewares/Third_Party/FreeRTOS/Source/event_groups.c **** 	#if ( ( INCLUDE_xTaskGetSchedulerState == 1 ) || ( configUSE_TIMERS == 1 ) )
 1062              		.loc 1 199 2 discriminator 2 view .LVU333
 1063 0024 42B9     		cbnz	r2, .L65
 199:Middlewares/Third_Party/FreeRTOS/Source/event_groups.c **** 	#if ( ( INCLUDE_xTaskGetSchedulerState == 1 ) || ( configUSE_TIMERS == 1 ) )
 1064              		.loc 1 199 2 view .LVU334
 1065              	.LBB67:
 1066              	.LBI67:
ARM GAS  C:\Users\zhaohe\AppData\Local\Temp\ccBd5B9N.s 			page 41


 191:Middlewares/Third_Party/FreeRTOS/Source/portable/GCC/ARM_CM4F/portmacro.h **** {
 1067              		.loc 2 191 30 view .LVU335
 1068              	.LBB68:
 193:Middlewares/Third_Party/FreeRTOS/Source/portable/GCC/ARM_CM4F/portmacro.h **** 
 1069              		.loc 2 193 1 view .LVU336
 195:Middlewares/Third_Party/FreeRTOS/Source/portable/GCC/ARM_CM4F/portmacro.h **** 	(
 1070              		.loc 2 195 2 view .LVU337
 1071              		.syntax unified
 1072              	@ 195 "Middlewares/Third_Party/FreeRTOS/Source/portable/GCC/ARM_CM4F/portmacro.h" 1
 1073 0026 4FF05003 			mov r3, #80												
 1074 002a 83F31188 		msr basepri, r3											
 1075 002e BFF36F8F 		isb														
 1076 0032 BFF34F8F 		dsb														
 1077              	
 1078              	@ 0 "" 2
 1079              	.LVL86:
 1080              		.thumb
 1081              		.syntax unified
 1082              	.L66:
 195:Middlewares/Third_Party/FreeRTOS/Source/portable/GCC/ARM_CM4F/portmacro.h **** 	(
 1083              		.loc 2 195 2 is_stmt 0 view .LVU338
 1084              	.LBE68:
 1085              	.LBE67:
 199:Middlewares/Third_Party/FreeRTOS/Source/event_groups.c **** 	#if ( ( INCLUDE_xTaskGetSchedulerState == 1 ) || ( configUSE_TIMERS == 1 ) )
 1086              		.loc 1 199 2 is_stmt 1 discriminator 2 view .LVU339
 199:Middlewares/Third_Party/FreeRTOS/Source/event_groups.c **** 	#if ( ( INCLUDE_xTaskGetSchedulerState == 1 ) || ( configUSE_TIMERS == 1 ) )
 1087              		.loc 1 199 2 discriminator 2 view .LVU340
 199:Middlewares/Third_Party/FreeRTOS/Source/event_groups.c **** 	#if ( ( INCLUDE_xTaskGetSchedulerState == 1 ) || ( configUSE_TIMERS == 1 ) )
 1088              		.loc 1 199 2 discriminator 2 view .LVU341
 1089 0036 FEE7     		b	.L66
 1090              	.LVL87:
 1091              	.L65:
 199:Middlewares/Third_Party/FreeRTOS/Source/event_groups.c **** 	#if ( ( INCLUDE_xTaskGetSchedulerState == 1 ) || ( configUSE_TIMERS == 1 ) )
 1092              		.loc 1 199 38 discriminator 2 view .LVU342
 202:Middlewares/Third_Party/FreeRTOS/Source/event_groups.c **** 	}
 1093              		.loc 1 202 3 discriminator 2 view .LVU343
 1094 0038 FFF7FEFF 		bl	xTaskGetSchedulerState
 1095              	.LVL88:
 202:Middlewares/Third_Party/FreeRTOS/Source/event_groups.c **** 	}
 1096              		.loc 1 202 3 is_stmt 0 discriminator 2 view .LVU344
 1097 003c 48B9     		cbnz	r0, .L67
 1098 003e 45B1     		cbz	r5, .L67
 202:Middlewares/Third_Party/FreeRTOS/Source/event_groups.c **** 	}
 1099              		.loc 1 202 3 is_stmt 1 view .LVU345
 1100              	.LBB69:
 1101              	.LBI69:
 191:Middlewares/Third_Party/FreeRTOS/Source/portable/GCC/ARM_CM4F/portmacro.h **** {
 1102              		.loc 2 191 30 view .LVU346
 1103              	.LBB70:
 193:Middlewares/Third_Party/FreeRTOS/Source/portable/GCC/ARM_CM4F/portmacro.h **** 
 1104              		.loc 2 193 1 view .LVU347
 195:Middlewares/Third_Party/FreeRTOS/Source/portable/GCC/ARM_CM4F/portmacro.h **** 	(
 1105              		.loc 2 195 2 view .LVU348
 1106              		.syntax unified
 1107              	@ 195 "Middlewares/Third_Party/FreeRTOS/Source/portable/GCC/ARM_CM4F/portmacro.h" 1
 1108 0040 4FF05003 			mov r3, #80												
 1109 0044 83F31188 		msr basepri, r3											
ARM GAS  C:\Users\zhaohe\AppData\Local\Temp\ccBd5B9N.s 			page 42


 1110 0048 BFF36F8F 		isb														
 1111 004c BFF34F8F 		dsb														
 1112              	
 1113              	@ 0 "" 2
 1114              	.LVL89:
 1115              		.thumb
 1116              		.syntax unified
 1117              	.L68:
 195:Middlewares/Third_Party/FreeRTOS/Source/portable/GCC/ARM_CM4F/portmacro.h **** 	(
 1118              		.loc 2 195 2 is_stmt 0 view .LVU349
 1119              	.LBE70:
 1120              	.LBE69:
 202:Middlewares/Third_Party/FreeRTOS/Source/event_groups.c **** 	}
 1121              		.loc 1 202 3 is_stmt 1 discriminator 3 view .LVU350
 202:Middlewares/Third_Party/FreeRTOS/Source/event_groups.c **** 	}
 1122              		.loc 1 202 3 discriminator 3 view .LVU351
 202:Middlewares/Third_Party/FreeRTOS/Source/event_groups.c **** 	}
 1123              		.loc 1 202 3 discriminator 3 view .LVU352
 1124 0050 FEE7     		b	.L68
 1125              	.L67:
 202:Middlewares/Third_Party/FreeRTOS/Source/event_groups.c **** 	}
 1126              		.loc 1 202 104 discriminator 8 view .LVU353
 206:Middlewares/Third_Party/FreeRTOS/Source/event_groups.c **** 	{
 1127              		.loc 1 206 2 discriminator 8 view .LVU354
 1128 0052 FFF7FEFF 		bl	vTaskSuspendAll
 1129              	.LVL90:
 208:Middlewares/Third_Party/FreeRTOS/Source/event_groups.c **** 
 1130              		.loc 1 208 3 discriminator 8 view .LVU355
 208:Middlewares/Third_Party/FreeRTOS/Source/event_groups.c **** 
 1131              		.loc 1 208 22 is_stmt 0 discriminator 8 view .LVU356
 1132 0056 D7F80090 		ldr	r9, [r7]
 1133              	.LVL91:
 210:Middlewares/Third_Party/FreeRTOS/Source/event_groups.c **** 
 1134              		.loc 1 210 3 is_stmt 1 discriminator 8 view .LVU357
 210:Middlewares/Third_Party/FreeRTOS/Source/event_groups.c **** 
 1135              		.loc 1 210 12 is_stmt 0 discriminator 8 view .LVU358
 1136 005a 3146     		mov	r1, r6
 1137 005c 3846     		mov	r0, r7
 1138 005e FFF7FEFF 		bl	xEventGroupSetBits
 1139              	.LVL92:
 212:Middlewares/Third_Party/FreeRTOS/Source/event_groups.c **** 		{
 1140              		.loc 1 212 3 is_stmt 1 discriminator 8 view .LVU359
 212:Middlewares/Third_Party/FreeRTOS/Source/event_groups.c **** 		{
 1141              		.loc 1 212 30 is_stmt 0 discriminator 8 view .LVU360
 1142 0062 49EA0606 		orr	r6, r9, r6
 1143              	.LVL93:
 212:Middlewares/Third_Party/FreeRTOS/Source/event_groups.c **** 		{
 1144              		.loc 1 212 5 discriminator 8 view .LVU361
 1145 0066 34EA0603 		bics	r3, r4, r6
 1146 006a 1AD0     		beq	.L77
 225:Middlewares/Third_Party/FreeRTOS/Source/event_groups.c **** 			{
 1147              		.loc 1 225 4 is_stmt 1 view .LVU362
 225:Middlewares/Third_Party/FreeRTOS/Source/event_groups.c **** 			{
 1148              		.loc 1 225 6 is_stmt 0 view .LVU363
 1149 006c FDB9     		cbnz	r5, .L78
 244:Middlewares/Third_Party/FreeRTOS/Source/event_groups.c **** 				xTimeoutOccurred = pdTRUE;
 1150              		.loc 1 244 5 is_stmt 1 view .LVU364
ARM GAS  C:\Users\zhaohe\AppData\Local\Temp\ccBd5B9N.s 			page 43


 244:Middlewares/Third_Party/FreeRTOS/Source/event_groups.c **** 				xTimeoutOccurred = pdTRUE;
 1151              		.loc 1 244 14 is_stmt 0 view .LVU365
 1152 006e 3E68     		ldr	r6, [r7]
 1153              	.LVL94:
 245:Middlewares/Third_Party/FreeRTOS/Source/event_groups.c **** 			}
 1154              		.loc 1 245 5 is_stmt 1 view .LVU366
 1155              	.L70:
 249:Middlewares/Third_Party/FreeRTOS/Source/event_groups.c **** 
 1156              		.loc 1 249 2 view .LVU367
 249:Middlewares/Third_Party/FreeRTOS/Source/event_groups.c **** 
 1157              		.loc 1 249 20 is_stmt 0 view .LVU368
 1158 0070 FFF7FEFF 		bl	xTaskResumeAll
 1159              	.LVL95:
 251:Middlewares/Third_Party/FreeRTOS/Source/event_groups.c **** 	{
 1160              		.loc 1 251 2 is_stmt 1 view .LVU369
 251:Middlewares/Third_Party/FreeRTOS/Source/event_groups.c **** 	{
 1161              		.loc 1 251 4 is_stmt 0 view .LVU370
 1162 0074 95B1     		cbz	r5, .L62
 253:Middlewares/Third_Party/FreeRTOS/Source/event_groups.c **** 		{
 1163              		.loc 1 253 3 is_stmt 1 view .LVU371
 253:Middlewares/Third_Party/FreeRTOS/Source/event_groups.c **** 		{
 1164              		.loc 1 253 5 is_stmt 0 view .LVU372
 1165 0076 48B9     		cbnz	r0, .L73
 255:Middlewares/Third_Party/FreeRTOS/Source/event_groups.c **** 		}
 1166              		.loc 1 255 4 is_stmt 1 view .LVU373
 1167 0078 4FF0E023 		mov	r3, #-536813568
 1168 007c 4FF08052 		mov	r2, #268435456
 1169 0080 C3F8042D 		str	r2, [r3, #3332]
 255:Middlewares/Third_Party/FreeRTOS/Source/event_groups.c **** 		}
 1170              		.loc 1 255 4 view .LVU374
 1171              		.syntax unified
 1172              	@ 255 "Middlewares/Third_Party/FreeRTOS/Source/event_groups.c" 1
 1173 0084 BFF34F8F 		dsb
 1174              	@ 0 "" 2
 255:Middlewares/Third_Party/FreeRTOS/Source/event_groups.c **** 		}
 1175              		.loc 1 255 4 view .LVU375
 1176              	@ 255 "Middlewares/Third_Party/FreeRTOS/Source/event_groups.c" 1
 1177 0088 BFF36F8F 		isb
 1178              	@ 0 "" 2
 255:Middlewares/Third_Party/FreeRTOS/Source/event_groups.c **** 		}
 1179              		.loc 1 255 26 view .LVU376
 1180              		.thumb
 1181              		.syntax unified
 1182              	.L73:
 259:Middlewares/Third_Party/FreeRTOS/Source/event_groups.c **** 		}
 1183              		.loc 1 259 28 view .LVU377
 266:Middlewares/Third_Party/FreeRTOS/Source/event_groups.c **** 
 1184              		.loc 1 266 3 view .LVU378
 266:Middlewares/Third_Party/FreeRTOS/Source/event_groups.c **** 
 1185              		.loc 1 266 14 is_stmt 0 view .LVU379
 1186 008c FFF7FEFF 		bl	uxTaskResetEventItemValue
 1187              	.LVL96:
 266:Middlewares/Third_Party/FreeRTOS/Source/event_groups.c **** 
 1188              		.loc 1 266 14 view .LVU380
 1189 0090 0646     		mov	r6, r0
 1190              	.LVL97:
 268:Middlewares/Third_Party/FreeRTOS/Source/event_groups.c **** 		{
ARM GAS  C:\Users\zhaohe\AppData\Local\Temp\ccBd5B9N.s 			page 44


 1191              		.loc 1 268 3 is_stmt 1 view .LVU381
 268:Middlewares/Third_Party/FreeRTOS/Source/event_groups.c **** 		{
 1192              		.loc 1 268 5 is_stmt 0 view .LVU382
 1193 0092 10F0007F 		tst	r0, #33554432
 1194 0096 12D0     		beq	.L79
 1195              	.LVL98:
 1196              	.L74:
 295:Middlewares/Third_Party/FreeRTOS/Source/event_groups.c **** 
 1197              		.loc 1 295 3 is_stmt 1 view .LVU383
 299:Middlewares/Third_Party/FreeRTOS/Source/event_groups.c **** 	}
 1198              		.loc 1 299 3 view .LVU384
 299:Middlewares/Third_Party/FreeRTOS/Source/event_groups.c **** 	}
 1199              		.loc 1 299 12 is_stmt 0 view .LVU385
 1200 0098 26F07F46 		bic	r6, r6, #-16777216
 1201              	.LVL99:
 302:Middlewares/Third_Party/FreeRTOS/Source/event_groups.c **** 
 1202              		.loc 1 302 2 is_stmt 1 view .LVU386
 305:Middlewares/Third_Party/FreeRTOS/Source/event_groups.c **** 
 1203              		.loc 1 305 2 view .LVU387
 307:Middlewares/Third_Party/FreeRTOS/Source/event_groups.c **** }
 1204              		.loc 1 307 2 view .LVU388
 1205              	.L62:
 308:Middlewares/Third_Party/FreeRTOS/Source/event_groups.c **** /*-----------------------------------------------------------*/
 1206              		.loc 1 308 1 is_stmt 0 view .LVU389
 1207 009c 3046     		mov	r0, r6
 1208 009e BDE8F883 		pop	{r3, r4, r5, r6, r7, r8, r9, pc}
 1209              	.LVL100:
 1210              	.L77:
 215:Middlewares/Third_Party/FreeRTOS/Source/event_groups.c **** 
 1211              		.loc 1 215 4 is_stmt 1 view .LVU390
 219:Middlewares/Third_Party/FreeRTOS/Source/event_groups.c **** 
 1212              		.loc 1 219 4 view .LVU391
 219:Middlewares/Third_Party/FreeRTOS/Source/event_groups.c **** 
 1213              		.loc 1 219 29 is_stmt 0 view .LVU392
 1214 00a2 3B68     		ldr	r3, [r7]
 1215 00a4 23EA0403 		bic	r3, r3, r4
 1216 00a8 3B60     		str	r3, [r7]
 221:Middlewares/Third_Party/FreeRTOS/Source/event_groups.c **** 		}
 1217              		.loc 1 221 4 is_stmt 1 view .LVU393
 1218              	.LVL101:
 221:Middlewares/Third_Party/FreeRTOS/Source/event_groups.c **** 		}
 1219              		.loc 1 221 17 is_stmt 0 view .LVU394
 1220 00aa 4546     		mov	r5, r8
 1221 00ac E0E7     		b	.L70
 1222              	.LVL102:
 1223              	.L78:
 227:Middlewares/Third_Party/FreeRTOS/Source/event_groups.c **** 
 1224              		.loc 1 227 77 is_stmt 1 view .LVU395
 232:Middlewares/Third_Party/FreeRTOS/Source/event_groups.c **** 
 1225              		.loc 1 232 5 view .LVU396
 1226 00ae 2A46     		mov	r2, r5
 1227 00b0 44F0A061 		orr	r1, r4, #83886080
 1228 00b4 381D     		adds	r0, r7, #4
 1229 00b6 FFF7FEFF 		bl	vTaskPlaceOnUnorderedEventList
 1230              	.LVL103:
 238:Middlewares/Third_Party/FreeRTOS/Source/event_groups.c **** 			}
 1231              		.loc 1 238 5 view .LVU397
ARM GAS  C:\Users\zhaohe\AppData\Local\Temp\ccBd5B9N.s 			page 45


 238:Middlewares/Third_Party/FreeRTOS/Source/event_groups.c **** 			}
 1232              		.loc 1 238 14 is_stmt 0 view .LVU398
 1233 00ba 4646     		mov	r6, r8
 1234 00bc D8E7     		b	.L70
 1235              	.LVL104:
 1236              	.L79:
 271:Middlewares/Third_Party/FreeRTOS/Source/event_groups.c **** 			{
 1237              		.loc 1 271 4 is_stmt 1 view .LVU399
 1238 00be FFF7FEFF 		bl	vPortEnterCritical
 1239              	.LVL105:
 273:Middlewares/Third_Party/FreeRTOS/Source/event_groups.c **** 
 1240              		.loc 1 273 5 view .LVU400
 273:Middlewares/Third_Party/FreeRTOS/Source/event_groups.c **** 
 1241              		.loc 1 273 14 is_stmt 0 view .LVU401
 1242 00c2 3E68     		ldr	r6, [r7]
 1243              	.LVL106:
 279:Middlewares/Third_Party/FreeRTOS/Source/event_groups.c **** 				{
 1244              		.loc 1 279 5 is_stmt 1 view .LVU402
 279:Middlewares/Third_Party/FreeRTOS/Source/event_groups.c **** 				{
 1245              		.loc 1 279 7 is_stmt 0 view .LVU403
 1246 00c4 34EA0603 		bics	r3, r4, r6
 1247 00c8 02D0     		beq	.L80
 1248              	.LVL107:
 1249              	.L75:
 285:Middlewares/Third_Party/FreeRTOS/Source/event_groups.c **** 				}
 1250              		.loc 1 285 30 is_stmt 1 view .LVU404
 288:Middlewares/Third_Party/FreeRTOS/Source/event_groups.c **** 
 1251              		.loc 1 288 4 view .LVU405
 1252 00ca FFF7FEFF 		bl	vPortExitCritical
 1253              	.LVL108:
 290:Middlewares/Third_Party/FreeRTOS/Source/event_groups.c **** 		}
 1254              		.loc 1 290 4 view .LVU406
 290:Middlewares/Third_Party/FreeRTOS/Source/event_groups.c **** 		}
 1255              		.loc 1 290 4 is_stmt 0 view .LVU407
 1256 00ce E3E7     		b	.L74
 1257              	.LVL109:
 1258              	.L80:
 281:Middlewares/Third_Party/FreeRTOS/Source/event_groups.c **** 				}
 1259              		.loc 1 281 6 is_stmt 1 view .LVU408
 281:Middlewares/Third_Party/FreeRTOS/Source/event_groups.c **** 				}
 1260              		.loc 1 281 31 is_stmt 0 view .LVU409
 1261 00d0 26EA0404 		bic	r4, r6, r4
 1262              	.LVL110:
 281:Middlewares/Third_Party/FreeRTOS/Source/event_groups.c **** 				}
 1263              		.loc 1 281 31 view .LVU410
 1264 00d4 3C60     		str	r4, [r7]
 1265 00d6 F8E7     		b	.L75
 1266              		.cfi_endproc
 1267              	.LFE7:
 1269              		.section	.text.vEventGroupDelete,"ax",%progbits
 1270              		.align	1
 1271              		.global	vEventGroupDelete
 1272              		.syntax unified
 1273              		.thumb
 1274              		.thumb_func
 1276              	vEventGroupDelete:
 1277              	.LVL111:
ARM GAS  C:\Users\zhaohe\AppData\Local\Temp\ccBd5B9N.s 			page 46


 1278              	.LFB12:
 614:Middlewares/Third_Party/FreeRTOS/Source/event_groups.c **** EventGroup_t *pxEventBits = xEventGroup;
 1279              		.loc 1 614 1 is_stmt 1 view -0
 1280              		.cfi_startproc
 1281              		@ args = 0, pretend = 0, frame = 0
 1282              		@ frame_needed = 0, uses_anonymous_args = 0
 614:Middlewares/Third_Party/FreeRTOS/Source/event_groups.c **** EventGroup_t *pxEventBits = xEventGroup;
 1283              		.loc 1 614 1 is_stmt 0 view .LVU412
 1284 0000 10B5     		push	{r4, lr}
 1285              	.LCFI12:
 1286              		.cfi_def_cfa_offset 8
 1287              		.cfi_offset 4, -8
 1288              		.cfi_offset 14, -4
 1289 0002 0446     		mov	r4, r0
 615:Middlewares/Third_Party/FreeRTOS/Source/event_groups.c **** const List_t *pxTasksWaitingForBits = &( pxEventBits->xTasksWaitingForBits );
 1290              		.loc 1 615 1 is_stmt 1 view .LVU413
 1291              	.LVL112:
 616:Middlewares/Third_Party/FreeRTOS/Source/event_groups.c **** 
 1292              		.loc 1 616 1 view .LVU414
 618:Middlewares/Third_Party/FreeRTOS/Source/event_groups.c **** 	{
 1293              		.loc 1 618 2 view .LVU415
 1294 0004 FFF7FEFF 		bl	vTaskSuspendAll
 1295              	.LVL113:
 620:Middlewares/Third_Party/FreeRTOS/Source/event_groups.c **** 
 1296              		.loc 1 620 41 view .LVU416
 622:Middlewares/Third_Party/FreeRTOS/Source/event_groups.c **** 		{
 1297              		.loc 1 622 3 view .LVU417
 1298              	.L82:
 622:Middlewares/Third_Party/FreeRTOS/Source/event_groups.c **** 		{
 1299              		.loc 1 622 8 view .LVU418
 622:Middlewares/Third_Party/FreeRTOS/Source/event_groups.c **** 		{
 1300              		.loc 1 622 10 is_stmt 0 view .LVU419
 1301 0008 6368     		ldr	r3, [r4, #4]
 622:Middlewares/Third_Party/FreeRTOS/Source/event_groups.c **** 		{
 1302              		.loc 1 622 8 view .LVU420
 1303 000a 93B1     		cbz	r3, .L88
 626:Middlewares/Third_Party/FreeRTOS/Source/event_groups.c **** 			vTaskRemoveFromUnorderedEventList( pxTasksWaitingForBits->xListEnd.pxNext, eventUNBLOCKED_DUE_TO
 1304              		.loc 1 626 4 is_stmt 1 view .LVU421
 1305 000c 2069     		ldr	r0, [r4, #16]
 1306 000e 04F10C03 		add	r3, r4, #12
 1307 0012 9842     		cmp	r0, r3
 1308 0014 04D0     		beq	.L89
 626:Middlewares/Third_Party/FreeRTOS/Source/event_groups.c **** 			vTaskRemoveFromUnorderedEventList( pxTasksWaitingForBits->xListEnd.pxNext, eventUNBLOCKED_DUE_TO
 1309              		.loc 1 626 121 discriminator 2 view .LVU422
 627:Middlewares/Third_Party/FreeRTOS/Source/event_groups.c **** 		}
 1310              		.loc 1 627 4 discriminator 2 view .LVU423
 1311 0016 4FF00071 		mov	r1, #33554432
 1312 001a FFF7FEFF 		bl	vTaskRemoveFromUnorderedEventList
 1313              	.LVL114:
 1314 001e F3E7     		b	.L82
 1315              	.L89:
 626:Middlewares/Third_Party/FreeRTOS/Source/event_groups.c **** 			vTaskRemoveFromUnorderedEventList( pxTasksWaitingForBits->xListEnd.pxNext, eventUNBLOCKED_DUE_TO
 1316              		.loc 1 626 4 view .LVU424
 1317              	.LBB71:
 1318              	.LBI71:
 191:Middlewares/Third_Party/FreeRTOS/Source/portable/GCC/ARM_CM4F/portmacro.h **** {
 1319              		.loc 2 191 30 view .LVU425
ARM GAS  C:\Users\zhaohe\AppData\Local\Temp\ccBd5B9N.s 			page 47


 1320              	.LBB72:
 193:Middlewares/Third_Party/FreeRTOS/Source/portable/GCC/ARM_CM4F/portmacro.h **** 
 1321              		.loc 2 193 1 view .LVU426
 195:Middlewares/Third_Party/FreeRTOS/Source/portable/GCC/ARM_CM4F/portmacro.h **** 	(
 1322              		.loc 2 195 2 view .LVU427
 1323              		.syntax unified
 1324              	@ 195 "Middlewares/Third_Party/FreeRTOS/Source/portable/GCC/ARM_CM4F/portmacro.h" 1
 1325 0020 4FF05003 			mov r3, #80												
 1326 0024 83F31188 		msr basepri, r3											
 1327 0028 BFF36F8F 		isb														
 1328 002c BFF34F8F 		dsb														
 1329              	
 1330              	@ 0 "" 2
 1331              	.LVL115:
 1332              		.thumb
 1333              		.syntax unified
 1334              	.L84:
 195:Middlewares/Third_Party/FreeRTOS/Source/portable/GCC/ARM_CM4F/portmacro.h **** 	(
 1335              		.loc 2 195 2 is_stmt 0 view .LVU428
 1336              	.LBE72:
 1337              	.LBE71:
 626:Middlewares/Third_Party/FreeRTOS/Source/event_groups.c **** 			vTaskRemoveFromUnorderedEventList( pxTasksWaitingForBits->xListEnd.pxNext, eventUNBLOCKED_DUE_TO
 1338              		.loc 1 626 4 is_stmt 1 discriminator 1 view .LVU429
 626:Middlewares/Third_Party/FreeRTOS/Source/event_groups.c **** 			vTaskRemoveFromUnorderedEventList( pxTasksWaitingForBits->xListEnd.pxNext, eventUNBLOCKED_DUE_TO
 1339              		.loc 1 626 4 discriminator 1 view .LVU430
 626:Middlewares/Third_Party/FreeRTOS/Source/event_groups.c **** 			vTaskRemoveFromUnorderedEventList( pxTasksWaitingForBits->xListEnd.pxNext, eventUNBLOCKED_DUE_TO
 1340              		.loc 1 626 4 discriminator 1 view .LVU431
 1341 0030 FEE7     		b	.L84
 1342              	.L88:
 640:Middlewares/Third_Party/FreeRTOS/Source/event_groups.c **** 			{
 1343              		.loc 1 640 4 view .LVU432
 640:Middlewares/Third_Party/FreeRTOS/Source/event_groups.c **** 			{
 1344              		.loc 1 640 19 is_stmt 0 view .LVU433
 1345 0032 237E     		ldrb	r3, [r4, #24]	@ zero_extendqisi2
 640:Middlewares/Third_Party/FreeRTOS/Source/event_groups.c **** 			{
 1346              		.loc 1 640 6 view .LVU434
 1347 0034 13B1     		cbz	r3, .L90
 1348              	.L86:
 646:Middlewares/Third_Party/FreeRTOS/Source/event_groups.c **** 			}
 1349              		.loc 1 646 29 is_stmt 1 view .LVU435
 651:Middlewares/Third_Party/FreeRTOS/Source/event_groups.c **** }
 1350              		.loc 1 651 2 view .LVU436
 651:Middlewares/Third_Party/FreeRTOS/Source/event_groups.c **** }
 1351              		.loc 1 651 11 is_stmt 0 view .LVU437
 1352 0036 FFF7FEFF 		bl	xTaskResumeAll
 1353              	.LVL116:
 652:Middlewares/Third_Party/FreeRTOS/Source/event_groups.c **** /*-----------------------------------------------------------*/
 1354              		.loc 1 652 1 view .LVU438
 1355 003a 10BD     		pop	{r4, pc}
 1356              	.LVL117:
 1357              	.L90:
 642:Middlewares/Third_Party/FreeRTOS/Source/event_groups.c **** 			}
 1358              		.loc 1 642 5 is_stmt 1 view .LVU439
 1359 003c 2046     		mov	r0, r4
 1360 003e FFF7FEFF 		bl	vPortFree
 1361              	.LVL118:
 1362 0042 F8E7     		b	.L86
ARM GAS  C:\Users\zhaohe\AppData\Local\Temp\ccBd5B9N.s 			page 48


 1363              		.cfi_endproc
 1364              	.LFE12:
 1366              		.section	.text.vEventGroupSetBitsCallback,"ax",%progbits
 1367              		.align	1
 1368              		.global	vEventGroupSetBitsCallback
 1369              		.syntax unified
 1370              		.thumb
 1371              		.thumb_func
 1373              	vEventGroupSetBitsCallback:
 1374              	.LVL119:
 1375              	.LFB13:
 658:Middlewares/Third_Party/FreeRTOS/Source/event_groups.c **** 	( void ) xEventGroupSetBits( pvEventGroup, ( EventBits_t ) ulBitsToSet ); /*lint !e9079 Can't avoi
 1376              		.loc 1 658 1 view -0
 1377              		.cfi_startproc
 1378              		@ args = 0, pretend = 0, frame = 0
 1379              		@ frame_needed = 0, uses_anonymous_args = 0
 658:Middlewares/Third_Party/FreeRTOS/Source/event_groups.c **** 	( void ) xEventGroupSetBits( pvEventGroup, ( EventBits_t ) ulBitsToSet ); /*lint !e9079 Can't avoi
 1380              		.loc 1 658 1 is_stmt 0 view .LVU441
 1381 0000 08B5     		push	{r3, lr}
 1382              	.LCFI13:
 1383              		.cfi_def_cfa_offset 8
 1384              		.cfi_offset 3, -8
 1385              		.cfi_offset 14, -4
 659:Middlewares/Third_Party/FreeRTOS/Source/event_groups.c **** }
 1386              		.loc 1 659 2 is_stmt 1 view .LVU442
 659:Middlewares/Third_Party/FreeRTOS/Source/event_groups.c **** }
 1387              		.loc 1 659 11 is_stmt 0 view .LVU443
 1388 0002 FFF7FEFF 		bl	xEventGroupSetBits
 1389              	.LVL120:
 660:Middlewares/Third_Party/FreeRTOS/Source/event_groups.c **** /*-----------------------------------------------------------*/
 1390              		.loc 1 660 1 view .LVU444
 1391 0006 08BD     		pop	{r3, pc}
 1392              		.cfi_endproc
 1393              	.LFE13:
 1395              		.section	.text.vEventGroupClearBitsCallback,"ax",%progbits
 1396              		.align	1
 1397              		.global	vEventGroupClearBitsCallback
 1398              		.syntax unified
 1399              		.thumb
 1400              		.thumb_func
 1402              	vEventGroupClearBitsCallback:
 1403              	.LVL121:
 1404              	.LFB14:
 666:Middlewares/Third_Party/FreeRTOS/Source/event_groups.c **** 	( void ) xEventGroupClearBits( pvEventGroup, ( EventBits_t ) ulBitsToClear ); /*lint !e9079 Can't 
 1405              		.loc 1 666 1 is_stmt 1 view -0
 1406              		.cfi_startproc
 1407              		@ args = 0, pretend = 0, frame = 0
 1408              		@ frame_needed = 0, uses_anonymous_args = 0
 666:Middlewares/Third_Party/FreeRTOS/Source/event_groups.c **** 	( void ) xEventGroupClearBits( pvEventGroup, ( EventBits_t ) ulBitsToClear ); /*lint !e9079 Can't 
 1409              		.loc 1 666 1 is_stmt 0 view .LVU446
 1410 0000 08B5     		push	{r3, lr}
 1411              	.LCFI14:
 1412              		.cfi_def_cfa_offset 8
 1413              		.cfi_offset 3, -8
 1414              		.cfi_offset 14, -4
 667:Middlewares/Third_Party/FreeRTOS/Source/event_groups.c **** }
 1415              		.loc 1 667 2 is_stmt 1 view .LVU447
ARM GAS  C:\Users\zhaohe\AppData\Local\Temp\ccBd5B9N.s 			page 49


 667:Middlewares/Third_Party/FreeRTOS/Source/event_groups.c **** }
 1416              		.loc 1 667 11 is_stmt 0 view .LVU448
 1417 0002 FFF7FEFF 		bl	xEventGroupClearBits
 1418              	.LVL122:
 668:Middlewares/Third_Party/FreeRTOS/Source/event_groups.c **** /*-----------------------------------------------------------*/
 1419              		.loc 1 668 1 view .LVU449
 1420 0006 08BD     		pop	{r3, pc}
 1421              		.cfi_endproc
 1422              	.LFE14:
 1424              		.text
 1425              	.Letext0:
 1426              		.file 3 "e:\\gcc\\2021.10\\lib\\gcc\\arm-none-eabi\\10.3.1\\include\\stddef.h"
 1427              		.file 4 "e:\\gcc\\2021.10\\arm-none-eabi\\include\\machine\\_default_types.h"
 1428              		.file 5 "e:\\gcc\\2021.10\\arm-none-eabi\\include\\sys\\_stdint.h"
 1429              		.file 6 "Middlewares/Third_Party/FreeRTOS/Source/include/FreeRTOS.h"
 1430              		.file 7 "Middlewares/Third_Party/FreeRTOS/Source/include/list.h"
 1431              		.file 8 "Middlewares/Third_Party/FreeRTOS/Source/include/event_groups.h"
 1432              		.file 9 "Middlewares/Third_Party/FreeRTOS/Source/include/task.h"
 1433              		.file 10 "Middlewares/Third_Party/FreeRTOS/Source/include/portable.h"
ARM GAS  C:\Users\zhaohe\AppData\Local\Temp\ccBd5B9N.s 			page 50


DEFINED SYMBOLS
                            *ABS*:00000000 event_groups.c
C:\Users\zhaohe\AppData\Local\Temp\ccBd5B9N.s:20     .text.prvTestWaitCondition:00000000 $t
C:\Users\zhaohe\AppData\Local\Temp\ccBd5B9N.s:25     .text.prvTestWaitCondition:00000000 prvTestWaitCondition
C:\Users\zhaohe\AppData\Local\Temp\ccBd5B9N.s:78     .text.xEventGroupCreateStatic:00000000 $t
C:\Users\zhaohe\AppData\Local\Temp\ccBd5B9N.s:84     .text.xEventGroupCreateStatic:00000000 xEventGroupCreateStatic
C:\Users\zhaohe\AppData\Local\Temp\ccBd5B9N.s:212    .text.xEventGroupCreate:00000000 $t
C:\Users\zhaohe\AppData\Local\Temp\ccBd5B9N.s:218    .text.xEventGroupCreate:00000000 xEventGroupCreate
C:\Users\zhaohe\AppData\Local\Temp\ccBd5B9N.s:264    .text.xEventGroupWaitBits:00000000 $t
C:\Users\zhaohe\AppData\Local\Temp\ccBd5B9N.s:270    .text.xEventGroupWaitBits:00000000 xEventGroupWaitBits
C:\Users\zhaohe\AppData\Local\Temp\ccBd5B9N.s:605    .text.xEventGroupClearBits:00000000 $t
C:\Users\zhaohe\AppData\Local\Temp\ccBd5B9N.s:611    .text.xEventGroupClearBits:00000000 xEventGroupClearBits
C:\Users\zhaohe\AppData\Local\Temp\ccBd5B9N.s:729    .text.xEventGroupGetBitsFromISR:00000000 $t
C:\Users\zhaohe\AppData\Local\Temp\ccBd5B9N.s:735    .text.xEventGroupGetBitsFromISR:00000000 xEventGroupGetBitsFromISR
C:\Users\zhaohe\AppData\Local\Temp\ccBd5B9N.s:796    .text.xEventGroupSetBits:00000000 $t
C:\Users\zhaohe\AppData\Local\Temp\ccBd5B9N.s:802    .text.xEventGroupSetBits:00000000 xEventGroupSetBits
C:\Users\zhaohe\AppData\Local\Temp\ccBd5B9N.s:995    .text.xEventGroupSync:00000000 $t
C:\Users\zhaohe\AppData\Local\Temp\ccBd5B9N.s:1001   .text.xEventGroupSync:00000000 xEventGroupSync
C:\Users\zhaohe\AppData\Local\Temp\ccBd5B9N.s:1270   .text.vEventGroupDelete:00000000 $t
C:\Users\zhaohe\AppData\Local\Temp\ccBd5B9N.s:1276   .text.vEventGroupDelete:00000000 vEventGroupDelete
C:\Users\zhaohe\AppData\Local\Temp\ccBd5B9N.s:1367   .text.vEventGroupSetBitsCallback:00000000 $t
C:\Users\zhaohe\AppData\Local\Temp\ccBd5B9N.s:1373   .text.vEventGroupSetBitsCallback:00000000 vEventGroupSetBitsCallback
C:\Users\zhaohe\AppData\Local\Temp\ccBd5B9N.s:1396   .text.vEventGroupClearBitsCallback:00000000 $t
C:\Users\zhaohe\AppData\Local\Temp\ccBd5B9N.s:1402   .text.vEventGroupClearBitsCallback:00000000 vEventGroupClearBitsCallback

UNDEFINED SYMBOLS
vListInitialise
pvPortMalloc
xTaskGetSchedulerState
vTaskSuspendAll
xTaskResumeAll
uxTaskResetEventItemValue
vTaskPlaceOnUnorderedEventList
vPortEnterCritical
vPortExitCritical
vTaskRemoveFromUnorderedEventList
vPortFree
