ARM GAS  C:\Users\zhaohe\AppData\Local\Temp\ccrNSqWz.s 			page 1


   1              		.cpu cortex-m4
   2              		.arch armv7e-m
   3              		.fpu fpv4-sp-d16
   4              		.eabi_attribute 27, 1
   5              		.eabi_attribute 28, 1
   6              		.eabi_attribute 20, 1
   7              		.eabi_attribute 21, 1
   8              		.eabi_attribute 23, 3
   9              		.eabi_attribute 24, 1
  10              		.eabi_attribute 25, 1
  11              		.eabi_attribute 26, 1
  12              		.eabi_attribute 30, 1
  13              		.eabi_attribute 34, 1
  14              		.eabi_attribute 18, 4
  15              		.file	"pid.cpp"
  16              		.text
  17              	.Ltext0:
  18              		.cfi_sections	.debug_frame
  19              		.section	.text._ZN7PidCore4InitEffffff,"ax",%progbits
  20              		.align	1
  21              		.global	_ZN7PidCore4InitEffffff
  22              		.syntax unified
  23              		.thumb
  24              		.thumb_func
  26              	_ZN7PidCore4InitEffffff:
  27              		.fnstart
  28              	.LVL0:
  29              	.LFB0:
  30              		.file 1 "Sys/Flight/pid.cpp"
   1:Sys/Flight/pid.cpp **** /*
   2:Sys/Flight/pid.cpp ****  * @Description:
   3:Sys/Flight/pid.cpp ****  * @Version: 1.0
   4:Sys/Flight/pid.cpp ****  * @Author: zhaohe
   5:Sys/Flight/pid.cpp ****  * @Date: 2022-08-20 14:56:25
   6:Sys/Flight/pid.cpp ****  * @LastEditors: zhaohe
   7:Sys/Flight/pid.cpp ****  * @LastEditTime: 2022-09-15 23:24:15
   8:Sys/Flight/pid.cpp ****  * @FilePath: \ZH_FLIGHT\Sys\Flight\pid.cpp
   9:Sys/Flight/pid.cpp ****  * Copyright (C) 2022 zhaohe. All rights reserved.
  10:Sys/Flight/pid.cpp ****  */
  11:Sys/Flight/pid.cpp **** #include "pid.h"
  12:Sys/Flight/pid.cpp **** void PidCore::Init(float kp, float ki, float kd, float out_limit, float int_limit, float dt)
  13:Sys/Flight/pid.cpp **** {
  31              		.loc 1 13 1 view -0
  32              		.cfi_startproc
  33              		@ args = 0, pretend = 0, frame = 0
  34              		@ frame_needed = 0, uses_anonymous_args = 0
  35              		@ link register save eliminated.
  14:Sys/Flight/pid.cpp ****     _kp = kp;
  36              		.loc 1 14 5 view .LVU1
  37              		.loc 1 14 9 is_stmt 0 view .LVU2
  38 0000 80ED000A 		vstr.32	s0, [r0]
  15:Sys/Flight/pid.cpp ****     _ki = ki;
  39              		.loc 1 15 5 is_stmt 1 view .LVU3
  40              		.loc 1 15 9 is_stmt 0 view .LVU4
  41 0004 C0ED010A 		vstr.32	s1, [r0, #4]
  16:Sys/Flight/pid.cpp ****     _kd = kd;
  42              		.loc 1 16 5 is_stmt 1 view .LVU5
ARM GAS  C:\Users\zhaohe\AppData\Local\Temp\ccrNSqWz.s 			page 2


  43              		.loc 1 16 9 is_stmt 0 view .LVU6
  44 0008 80ED021A 		vstr.32	s2, [r0, #8]
  17:Sys/Flight/pid.cpp ****     _out_limit = out_limit;
  45              		.loc 1 17 5 is_stmt 1 view .LVU7
  46              		.loc 1 17 16 is_stmt 0 view .LVU8
  47 000c C0ED061A 		vstr.32	s3, [r0, #24]
  18:Sys/Flight/pid.cpp ****     _int_limit = int_limit;
  48              		.loc 1 18 5 is_stmt 1 view .LVU9
  49              		.loc 1 18 16 is_stmt 0 view .LVU10
  50 0010 80ED072A 		vstr.32	s4, [r0, #28]
  19:Sys/Flight/pid.cpp ****     _dt = dt;
  51              		.loc 1 19 5 is_stmt 1 view .LVU11
  52              		.loc 1 19 9 is_stmt 0 view .LVU12
  53 0014 C0ED082A 		vstr.32	s5, [r0, #32]
  20:Sys/Flight/pid.cpp **** }
  54              		.loc 1 20 1 view .LVU13
  55 0018 7047     		bx	lr
  56              		.cfi_endproc
  57              	.LFE0:
  58              		.cantunwind
  59              		.fnend
  61              		.section	.text._ZN7PidCore16EnableDiffFilterEff,"ax",%progbits
  62              		.align	1
  63              		.global	_ZN7PidCore16EnableDiffFilterEff
  64              		.syntax unified
  65              		.thumb
  66              		.thumb_func
  68              	_ZN7PidCore16EnableDiffFilterEff:
  69              		.fnstart
  70              	.LVL1:
  71              	.LFB2:
  21:Sys/Flight/pid.cpp **** 
  22:Sys/Flight/pid.cpp **** float PidCore::Update(float actual, float except)
  23:Sys/Flight/pid.cpp **** {
  24:Sys/Flight/pid.cpp ****     float error = 0.0f;
  25:Sys/Flight/pid.cpp ****     float p = 0.0f;
  26:Sys/Flight/pid.cpp ****     float i = 0.0f;
  27:Sys/Flight/pid.cpp ****     float d = 0.0f;
  28:Sys/Flight/pid.cpp ****     float output = 0.0f;
  29:Sys/Flight/pid.cpp **** 
  30:Sys/Flight/pid.cpp ****     error = except - actual;
  31:Sys/Flight/pid.cpp ****     // 积分限幅
  32:Sys/Flight/pid.cpp ****     _integral = _Limit(_integral + error * _dt, _int_limit);
  33:Sys/Flight/pid.cpp **** 
  34:Sys/Flight/pid.cpp ****     // 比例
  35:Sys/Flight/pid.cpp ****     p = _kp * error;
  36:Sys/Flight/pid.cpp **** 
  37:Sys/Flight/pid.cpp ****     // 微分
  38:Sys/Flight/pid.cpp ****     
  39:Sys/Flight/pid.cpp ****     // 微分先行
  40:Sys/Flight/pid.cpp ****     if (_diff_ahead_fw == ON)
  41:Sys/Flight/pid.cpp ****     {
  42:Sys/Flight/pid.cpp ****         d = _kd * (actual - _pre_actual) / _dt;
  43:Sys/Flight/pid.cpp ****     }
  44:Sys/Flight/pid.cpp ****     else
  45:Sys/Flight/pid.cpp ****     {
  46:Sys/Flight/pid.cpp ****         d = _kd * (error - _pre_error) / _dt;
ARM GAS  C:\Users\zhaohe\AppData\Local\Temp\ccrNSqWz.s 			page 3


  47:Sys/Flight/pid.cpp ****     }
  48:Sys/Flight/pid.cpp **** 
  49:Sys/Flight/pid.cpp ****     // 不完全微分
  50:Sys/Flight/pid.cpp ****     if (_diff_filter_fw == ON)
  51:Sys/Flight/pid.cpp ****     {
  52:Sys/Flight/pid.cpp ****         d = _diff_filter.Apply(d);
  53:Sys/Flight/pid.cpp ****     }
  54:Sys/Flight/pid.cpp **** 
  55:Sys/Flight/pid.cpp ****     // 积分
  56:Sys/Flight/pid.cpp ****     i = _ki * _integral;
  57:Sys/Flight/pid.cpp **** 
  58:Sys/Flight/pid.cpp ****     _pre_error = error;
  59:Sys/Flight/pid.cpp ****     _pre_actual = actual;
  60:Sys/Flight/pid.cpp **** 
  61:Sys/Flight/pid.cpp ****     output = p + i + d;
  62:Sys/Flight/pid.cpp ****     return output;
  63:Sys/Flight/pid.cpp **** }
  64:Sys/Flight/pid.cpp **** 
  65:Sys/Flight/pid.cpp **** void PidCore::EnableDiffFilter(float sample_freq, float cutoff_freq)
  66:Sys/Flight/pid.cpp **** {
  72              		.loc 1 66 1 is_stmt 1 view -0
  73              		.cfi_startproc
  74              		@ args = 0, pretend = 0, frame = 0
  75              		@ frame_needed = 0, uses_anonymous_args = 0
  76              		.loc 1 66 1 is_stmt 0 view .LVU15
  77 0000 08B5     		push	{r3, lr}
  78              		.save {r3, lr}
  79              	.LCFI0:
  80              		.cfi_def_cfa_offset 8
  81              		.cfi_offset 3, -8
  82              		.cfi_offset 14, -4
  67:Sys/Flight/pid.cpp ****     _diff_filter_fw = ON;
  83              		.loc 1 67 5 is_stmt 1 view .LVU16
  84              		.loc 1 67 21 is_stmt 0 view .LVU17
  85 0002 0123     		movs	r3, #1
  86 0004 80F82430 		strb	r3, [r0, #36]
  68:Sys/Flight/pid.cpp ****     _diff_filter.Init(sample_freq, cutoff_freq);
  87              		.loc 1 68 5 is_stmt 1 view .LVU18
  88              		.loc 1 68 22 is_stmt 0 view .LVU19
  89 0008 2830     		adds	r0, r0, #40
  90              	.LVL2:
  91              		.loc 1 68 22 view .LVU20
  92 000a FFF7FEFF 		bl	_ZN13LowPassFilter4InitEff
  93              	.LVL3:
  69:Sys/Flight/pid.cpp **** }
  94              		.loc 1 69 1 view .LVU21
  95 000e 08BD     		pop	{r3, pc}
  96              		.cfi_endproc
  97              	.LFE2:
  98              		.fnend
 100              		.section	.text._ZN7PidCore17DisableDiffFilterEv,"ax",%progbits
 101              		.align	1
 102              		.global	_ZN7PidCore17DisableDiffFilterEv
 103              		.syntax unified
 104              		.thumb
 105              		.thumb_func
 107              	_ZN7PidCore17DisableDiffFilterEv:
ARM GAS  C:\Users\zhaohe\AppData\Local\Temp\ccrNSqWz.s 			page 4


 108              		.fnstart
 109              	.LVL4:
 110              	.LFB3:
  70:Sys/Flight/pid.cpp **** 
  71:Sys/Flight/pid.cpp **** void PidCore::DisableDiffFilter()
  72:Sys/Flight/pid.cpp **** {
 111              		.loc 1 72 1 is_stmt 1 view -0
 112              		.cfi_startproc
 113              		@ args = 0, pretend = 0, frame = 0
 114              		@ frame_needed = 0, uses_anonymous_args = 0
 115              		@ link register save eliminated.
  73:Sys/Flight/pid.cpp ****     _diff_filter_fw = OFF;
 116              		.loc 1 73 5 view .LVU23
 117              		.loc 1 73 21 is_stmt 0 view .LVU24
 118 0000 0023     		movs	r3, #0
 119 0002 80F82430 		strb	r3, [r0, #36]
  74:Sys/Flight/pid.cpp **** }
 120              		.loc 1 74 1 view .LVU25
 121 0006 7047     		bx	lr
 122              		.cfi_endproc
 123              	.LFE3:
 124              		.cantunwind
 125              		.fnend
 127              		.section	.text._ZN7PidCore15EnableDiffAheadEv,"ax",%progbits
 128              		.align	1
 129              		.global	_ZN7PidCore15EnableDiffAheadEv
 130              		.syntax unified
 131              		.thumb
 132              		.thumb_func
 134              	_ZN7PidCore15EnableDiffAheadEv:
 135              		.fnstart
 136              	.LVL5:
 137              	.LFB4:
  75:Sys/Flight/pid.cpp **** 
  76:Sys/Flight/pid.cpp **** void PidCore::EnableDiffAhead()
  77:Sys/Flight/pid.cpp **** {
 138              		.loc 1 77 1 is_stmt 1 view -0
 139              		.cfi_startproc
 140              		@ args = 0, pretend = 0, frame = 0
 141              		@ frame_needed = 0, uses_anonymous_args = 0
 142              		@ link register save eliminated.
  78:Sys/Flight/pid.cpp ****     _diff_ahead_fw = ON;
 143              		.loc 1 78 5 view .LVU27
 144              		.loc 1 78 20 is_stmt 0 view .LVU28
 145 0000 0123     		movs	r3, #1
 146 0002 80F82530 		strb	r3, [r0, #37]
  79:Sys/Flight/pid.cpp **** }
 147              		.loc 1 79 1 view .LVU29
 148 0006 7047     		bx	lr
 149              		.cfi_endproc
 150              	.LFE4:
 151              		.cantunwind
 152              		.fnend
 154              		.section	.text._ZN7PidCore16DisableDiffAheadEv,"ax",%progbits
 155              		.align	1
 156              		.global	_ZN7PidCore16DisableDiffAheadEv
 157              		.syntax unified
ARM GAS  C:\Users\zhaohe\AppData\Local\Temp\ccrNSqWz.s 			page 5


 158              		.thumb
 159              		.thumb_func
 161              	_ZN7PidCore16DisableDiffAheadEv:
 162              		.fnstart
 163              	.LVL6:
 164              	.LFB5:
  80:Sys/Flight/pid.cpp **** 
  81:Sys/Flight/pid.cpp **** void PidCore::DisableDiffAhead()
  82:Sys/Flight/pid.cpp **** {
 165              		.loc 1 82 1 is_stmt 1 view -0
 166              		.cfi_startproc
 167              		@ args = 0, pretend = 0, frame = 0
 168              		@ frame_needed = 0, uses_anonymous_args = 0
 169              		@ link register save eliminated.
  83:Sys/Flight/pid.cpp ****     _diff_ahead_fw = OFF;
 170              		.loc 1 83 5 view .LVU31
 171              		.loc 1 83 20 is_stmt 0 view .LVU32
 172 0000 0023     		movs	r3, #0
 173 0002 80F82530 		strb	r3, [r0, #37]
  84:Sys/Flight/pid.cpp **** }
 174              		.loc 1 84 1 view .LVU33
 175 0006 7047     		bx	lr
 176              		.cfi_endproc
 177              	.LFE5:
 178              		.cantunwind
 179              		.fnend
 181              		.section	.text._ZN7PidCore6_LimitEff,"ax",%progbits
 182              		.align	1
 183              		.global	_ZN7PidCore6_LimitEff
 184              		.syntax unified
 185              		.thumb
 186              		.thumb_func
 188              	_ZN7PidCore6_LimitEff:
 189              		.fnstart
 190              	.LVL7:
 191              	.LFB6:
  85:Sys/Flight/pid.cpp **** 
  86:Sys/Flight/pid.cpp **** float PidCore::_Limit(float value, float limit)
  87:Sys/Flight/pid.cpp **** {
 192              		.loc 1 87 1 is_stmt 1 view -0
 193              		.cfi_startproc
 194              		@ args = 0, pretend = 0, frame = 0
 195              		@ frame_needed = 0, uses_anonymous_args = 0
 196              		@ link register save eliminated.
 197              		.loc 1 87 1 is_stmt 0 view .LVU35
 198 0000 F0EE407A 		vmov.f32	s15, s0
  88:Sys/Flight/pid.cpp ****     if (value > limit)
 199              		.loc 1 88 5 is_stmt 1 view .LVU36
 200 0004 B4EEE00A 		vcmpe.f32	s0, s1
 201 0008 F1EE10FA 		vmrs	APSR_nzcv, FPSCR
 202 000c 09DC     		bgt	.L9
  89:Sys/Flight/pid.cpp ****     {
  90:Sys/Flight/pid.cpp ****         return limit;
  91:Sys/Flight/pid.cpp ****     }
  92:Sys/Flight/pid.cpp ****     if (value < -limit)
 203              		.loc 1 92 5 view .LVU37
 204              		.loc 1 92 17 is_stmt 0 view .LVU38
ARM GAS  C:\Users\zhaohe\AppData\Local\Temp\ccrNSqWz.s 			page 6


 205 000e B1EE600A 		vneg.f32	s0, s1
 206              	.LVL8:
 207              		.loc 1 92 5 view .LVU39
 208 0012 B4EEE70A 		vcmpe.f32	s0, s15
 209 0016 F1EE10FA 		vmrs	APSR_nzcv, FPSCR
 210 001a 04DC     		bgt	.L7
  93:Sys/Flight/pid.cpp ****     {
  94:Sys/Flight/pid.cpp ****         return -limit;
  95:Sys/Flight/pid.cpp ****     }
  96:Sys/Flight/pid.cpp ****     return value;
 211              		.loc 1 96 12 view .LVU40
 212 001c B0EE670A 		vmov.f32	s0, s15
 213 0020 7047     		bx	lr
 214              	.L9:
  90:Sys/Flight/pid.cpp ****     }
 215              		.loc 1 90 16 view .LVU41
 216 0022 B0EE600A 		vmov.f32	s0, s1
 217              	.L7:
  97:Sys/Flight/pid.cpp **** }...
 218              		.loc 1 97 1 view .LVU42
 219 0026 7047     		bx	lr
 220              		.cfi_endproc
 221              	.LFE6:
 222              		.cantunwind
 223              		.fnend
 225              		.section	.text._ZN7PidCore6UpdateEff,"ax",%progbits
 226              		.align	1
 227              		.global	_ZN7PidCore6UpdateEff
 228              		.syntax unified
 229              		.thumb
 230              		.thumb_func
 232              	_ZN7PidCore6UpdateEff:
 233              		.fnstart
 234              	.LVL9:
 235              	.LFB1:
  23:Sys/Flight/pid.cpp **** {
 236              		.loc 1 23 1 is_stmt 1 view -0
 237              		.cfi_startproc
 238              		@ args = 0, pretend = 0, frame = 0
 239              		@ frame_needed = 0, uses_anonymous_args = 0
  23:Sys/Flight/pid.cpp **** {
 240              		.loc 1 23 1 is_stmt 0 view .LVU44
 241 0000 10B5     		push	{r4, lr}
 242              		.save {r4, lr}
 243              	.LCFI1:
 244              		.cfi_def_cfa_offset 8
 245              		.cfi_offset 4, -8
 246              		.cfi_offset 14, -4
 247 0002 2DED048B 		vpush.64	{d8, d9}
 248              		.vsave {d8, d9}
 249              	.LCFI2:
 250              		.cfi_def_cfa_offset 24
 251              		.cfi_offset 80, -24
 252              		.cfi_offset 81, -20
 253              		.cfi_offset 82, -16
 254              		.cfi_offset 83, -12
 255 0006 0446     		mov	r4, r0
ARM GAS  C:\Users\zhaohe\AppData\Local\Temp\ccrNSqWz.s 			page 7


 256 0008 B0EE409A 		vmov.f32	s18, s0
  24:Sys/Flight/pid.cpp ****     float error = 0.0f;
 257              		.loc 1 24 5 is_stmt 1 view .LVU45
 258              	.LVL10:
  25:Sys/Flight/pid.cpp ****     float p = 0.0f;
 259              		.loc 1 25 5 view .LVU46
  26:Sys/Flight/pid.cpp ****     float i = 0.0f;
 260              		.loc 1 26 5 view .LVU47
  27:Sys/Flight/pid.cpp ****     float d = 0.0f;
 261              		.loc 1 27 5 view .LVU48
  28:Sys/Flight/pid.cpp ****     float output = 0.0f;
 262              		.loc 1 28 5 view .LVU49
  30:Sys/Flight/pid.cpp ****     error = except - actual;
 263              		.loc 1 30 5 view .LVU50
  30:Sys/Flight/pid.cpp ****     error = except - actual;
 264              		.loc 1 30 11 is_stmt 0 view .LVU51
 265 000c 30EEC08A 		vsub.f32	s16, s1, s0
 266              	.LVL11:
  32:Sys/Flight/pid.cpp ****     _integral = _Limit(_integral + error * _dt, _int_limit);
 267              		.loc 1 32 5 is_stmt 1 view .LVU52
  32:Sys/Flight/pid.cpp ****     _integral = _Limit(_integral + error * _dt, _int_limit);
 268              		.loc 1 32 24 is_stmt 0 view .LVU53
 269 0010 90ED050A 		vldr.32	s0, [r0, #20]
 270              	.LVL12:
  32:Sys/Flight/pid.cpp ****     _integral = _Limit(_integral + error * _dt, _int_limit);
 271              		.loc 1 32 44 view .LVU54
 272 0014 D0ED089A 		vldr.32	s19, [r0, #32]
  32:Sys/Flight/pid.cpp ****     _integral = _Limit(_integral + error * _dt, _int_limit);
 273              		.loc 1 32 42 view .LVU55
 274 0018 69EE887A 		vmul.f32	s15, s19, s16
  32:Sys/Flight/pid.cpp ****     _integral = _Limit(_integral + error * _dt, _int_limit);
 275              		.loc 1 32 23 view .LVU56
 276 001c D0ED070A 		vldr.32	s1, [r0, #28]
 277              	.LVL13:
  32:Sys/Flight/pid.cpp ****     _integral = _Limit(_integral + error * _dt, _int_limit);
 278              		.loc 1 32 23 view .LVU57
 279 0020 30EE270A 		vadd.f32	s0, s0, s15
 280 0024 FFF7FEFF 		bl	_ZN7PidCore6_LimitEff
 281              	.LVL14:
  32:Sys/Flight/pid.cpp ****     _integral = _Limit(_integral + error * _dt, _int_limit);
 282              		.loc 1 32 15 view .LVU58
 283 0028 84ED050A 		vstr.32	s0, [r4, #20]
  35:Sys/Flight/pid.cpp ****     p = _kp * error;
 284              		.loc 1 35 5 is_stmt 1 view .LVU59
  35:Sys/Flight/pid.cpp ****     p = _kp * error;
 285              		.loc 1 35 9 is_stmt 0 view .LVU60
 286 002c D4ED008A 		vldr.32	s17, [r4]
  35:Sys/Flight/pid.cpp ****     p = _kp * error;
 287              		.loc 1 35 7 view .LVU61
 288 0030 68EE888A 		vmul.f32	s17, s17, s16
 289              	.LVL15:
  40:Sys/Flight/pid.cpp ****     if (_diff_ahead_fw == ON)
 290              		.loc 1 40 5 is_stmt 1 view .LVU62
  40:Sys/Flight/pid.cpp ****     if (_diff_ahead_fw == ON)
 291              		.loc 1 40 9 is_stmt 0 view .LVU63
 292 0034 94F82530 		ldrb	r3, [r4, #37]	@ zero_extendqisi2
  40:Sys/Flight/pid.cpp ****     if (_diff_ahead_fw == ON)
ARM GAS  C:\Users\zhaohe\AppData\Local\Temp\ccrNSqWz.s 			page 8


 293              		.loc 1 40 5 view .LVU64
 294 0038 012B     		cmp	r3, #1
 295 003a 1ED0     		beq	.L15
  46:Sys/Flight/pid.cpp ****         d = _kd * (error - _pre_error) / _dt;
 296              		.loc 1 46 9 is_stmt 1 view .LVU65
  46:Sys/Flight/pid.cpp ****         d = _kd * (error - _pre_error) / _dt;
 297              		.loc 1 46 13 is_stmt 0 view .LVU66
 298 003c D4ED027A 		vldr.32	s15, [r4, #8]
  46:Sys/Flight/pid.cpp ****         d = _kd * (error - _pre_error) / _dt;
 299              		.loc 1 46 28 view .LVU67
 300 0040 94ED037A 		vldr.32	s14, [r4, #12]
  46:Sys/Flight/pid.cpp ****         d = _kd * (error - _pre_error) / _dt;
 301              		.loc 1 46 26 view .LVU68
 302 0044 38EE477A 		vsub.f32	s14, s16, s14
  46:Sys/Flight/pid.cpp ****         d = _kd * (error - _pre_error) / _dt;
 303              		.loc 1 46 17 view .LVU69
 304 0048 67EE877A 		vmul.f32	s15, s15, s14
  46:Sys/Flight/pid.cpp ****         d = _kd * (error - _pre_error) / _dt;
 305              		.loc 1 46 11 view .LVU70
 306 004c 87EEA90A 		vdiv.f32	s0, s15, s19
 307              	.LVL16:
 308              	.L12:
  50:Sys/Flight/pid.cpp ****     if (_diff_filter_fw == ON)
 309              		.loc 1 50 5 is_stmt 1 view .LVU71
  50:Sys/Flight/pid.cpp ****     if (_diff_filter_fw == ON)
 310              		.loc 1 50 9 is_stmt 0 view .LVU72
 311 0050 94F82430 		ldrb	r3, [r4, #36]	@ zero_extendqisi2
  50:Sys/Flight/pid.cpp ****     if (_diff_filter_fw == ON)
 312              		.loc 1 50 5 view .LVU73
 313 0054 012B     		cmp	r3, #1
 314 0056 1BD0     		beq	.L16
 315              	.L13:
  56:Sys/Flight/pid.cpp ****     i = _ki * _integral;
 316              		.loc 1 56 5 is_stmt 1 view .LVU74
  56:Sys/Flight/pid.cpp ****     i = _ki * _integral;
 317              		.loc 1 56 9 is_stmt 0 view .LVU75
 318 0058 D4ED017A 		vldr.32	s15, [r4, #4]
  56:Sys/Flight/pid.cpp ****     i = _ki * _integral;
 319              		.loc 1 56 15 view .LVU76
 320 005c 94ED057A 		vldr.32	s14, [r4, #20]
  56:Sys/Flight/pid.cpp ****     i = _ki * _integral;
 321              		.loc 1 56 7 view .LVU77
 322 0060 67EE877A 		vmul.f32	s15, s15, s14
 323              	.LVL17:
  58:Sys/Flight/pid.cpp ****     _pre_error = error;
 324              		.loc 1 58 5 is_stmt 1 view .LVU78
  58:Sys/Flight/pid.cpp ****     _pre_error = error;
 325              		.loc 1 58 16 is_stmt 0 view .LVU79
 326 0064 84ED038A 		vstr.32	s16, [r4, #12]
  59:Sys/Flight/pid.cpp ****     _pre_actual = actual;
 327              		.loc 1 59 5 is_stmt 1 view .LVU80
  59:Sys/Flight/pid.cpp ****     _pre_actual = actual;
 328              		.loc 1 59 17 is_stmt 0 view .LVU81
 329 0068 84ED049A 		vstr.32	s18, [r4, #16]
  61:Sys/Flight/pid.cpp ****     output = p + i + d;
 330              		.loc 1 61 5 is_stmt 1 view .LVU82
  61:Sys/Flight/pid.cpp ****     output = p + i + d;
ARM GAS  C:\Users\zhaohe\AppData\Local\Temp\ccrNSqWz.s 			page 9


 331              		.loc 1 61 16 is_stmt 0 view .LVU83
 332 006c 78EEA78A 		vadd.f32	s17, s17, s15
 333              	.LVL18:
  62:Sys/Flight/pid.cpp ****     return output;
 334              		.loc 1 62 5 is_stmt 1 view .LVU84
  63:Sys/Flight/pid.cpp **** }
 335              		.loc 1 63 1 is_stmt 0 view .LVU85
 336 0070 38EE800A 		vadd.f32	s0, s17, s0
 337              	.LVL19:
  63:Sys/Flight/pid.cpp **** }
 338              		.loc 1 63 1 view .LVU86
 339 0074 BDEC048B 		vldm	sp!, {d8-d9}
 340              	.LCFI3:
 341              		.cfi_remember_state
 342              		.cfi_restore 82
 343              		.cfi_restore 83
 344              		.cfi_restore 80
 345              		.cfi_restore 81
 346              		.cfi_def_cfa_offset 8
 347              	.LVL20:
  63:Sys/Flight/pid.cpp **** }
 348              		.loc 1 63 1 view .LVU87
 349 0078 10BD     		pop	{r4, pc}
 350              	.LVL21:
 351              	.L15:
 352              	.LCFI4:
 353              		.cfi_restore_state
  42:Sys/Flight/pid.cpp ****         d = _kd * (actual - _pre_actual) / _dt;
 354              		.loc 1 42 9 is_stmt 1 view .LVU88
  42:Sys/Flight/pid.cpp ****         d = _kd * (actual - _pre_actual) / _dt;
 355              		.loc 1 42 13 is_stmt 0 view .LVU89
 356 007a D4ED027A 		vldr.32	s15, [r4, #8]
  42:Sys/Flight/pid.cpp ****         d = _kd * (actual - _pre_actual) / _dt;
 357              		.loc 1 42 29 view .LVU90
 358 007e 94ED047A 		vldr.32	s14, [r4, #16]
  42:Sys/Flight/pid.cpp ****         d = _kd * (actual - _pre_actual) / _dt;
 359              		.loc 1 42 27 view .LVU91
 360 0082 39EE477A 		vsub.f32	s14, s18, s14
  42:Sys/Flight/pid.cpp ****         d = _kd * (actual - _pre_actual) / _dt;
 361              		.loc 1 42 17 view .LVU92
 362 0086 67EE877A 		vmul.f32	s15, s15, s14
  42:Sys/Flight/pid.cpp ****         d = _kd * (actual - _pre_actual) / _dt;
 363              		.loc 1 42 11 view .LVU93
 364 008a 87EEA90A 		vdiv.f32	s0, s15, s19
 365              	.LVL22:
  42:Sys/Flight/pid.cpp ****         d = _kd * (actual - _pre_actual) / _dt;
 366              		.loc 1 42 11 view .LVU94
 367 008e DFE7     		b	.L12
 368              	.L16:
  52:Sys/Flight/pid.cpp ****         d = _diff_filter.Apply(d);
 369              		.loc 1 52 9 is_stmt 1 view .LVU95
  52:Sys/Flight/pid.cpp ****         d = _diff_filter.Apply(d);
 370              		.loc 1 52 31 is_stmt 0 view .LVU96
 371 0090 04F12800 		add	r0, r4, #40
 372 0094 FFF7FEFF 		bl	_ZN13LowPassFilter5ApplyEf
 373              	.LVL23:
  52:Sys/Flight/pid.cpp ****         d = _diff_filter.Apply(d);
ARM GAS  C:\Users\zhaohe\AppData\Local\Temp\ccrNSqWz.s 			page 10


 374              		.loc 1 52 31 view .LVU97
 375 0098 DEE7     		b	.L13
 376              		.cfi_endproc
 377              	.LFE1:
 378              		.fnend
 380              		.text
 381              	.Letext0:
 382              		.file 2 "Sys/Flight/filter.h"
 383              		.file 3 "e:\\gcc\\2021.10\\arm-none-eabi\\include\\machine\\_default_types.h"
 384              		.file 4 "e:\\gcc\\2021.10\\arm-none-eabi\\include\\sys\\_stdint.h"
 385              		.file 5 "Sys/Flight/pid.h"
ARM GAS  C:\Users\zhaohe\AppData\Local\Temp\ccrNSqWz.s 			page 11

