ARM GAS  C:\Users\zhaohe\AppData\Local\Temp\ccbz8Z52.s 			page 1


   1              		.cpu cortex-m4
   2              		.arch armv7e-m
   3              		.fpu fpv4-sp-d16
   4              		.eabi_attribute 27, 1
   5              		.eabi_attribute 28, 1
   6              		.eabi_attribute 20, 1
   7              		.eabi_attribute 21, 1
   8              		.eabi_attribute 23, 3
   9              		.eabi_attribute 24, 1
  10              		.eabi_attribute 25, 1
  11              		.eabi_attribute 26, 1
  12              		.eabi_attribute 30, 1
  13              		.eabi_attribute 34, 1
  14              		.eabi_attribute 18, 4
  15              		.file	"stm32f4xx_it.c"
  16              		.text
  17              	.Ltext0:
  18              		.cfi_sections	.debug_frame
  19              		.section	.text.NMI_Handler,"ax",%progbits
  20              		.align	1
  21              		.global	NMI_Handler
  22              		.syntax unified
  23              		.thumb
  24              		.thumb_func
  26              	NMI_Handler:
  27              	.LFB130:
  28              		.file 1 "Core/Src/stm32f4xx_it.c"
   1:Core/Src/stm32f4xx_it.c **** /* USER CODE BEGIN Header */
   2:Core/Src/stm32f4xx_it.c **** /**
   3:Core/Src/stm32f4xx_it.c ****   ******************************************************************************
   4:Core/Src/stm32f4xx_it.c ****   * @file    stm32f4xx_it.c
   5:Core/Src/stm32f4xx_it.c ****   * @brief   Interrupt Service Routines.
   6:Core/Src/stm32f4xx_it.c ****   ******************************************************************************
   7:Core/Src/stm32f4xx_it.c ****   * @attention
   8:Core/Src/stm32f4xx_it.c ****   *
   9:Core/Src/stm32f4xx_it.c ****   * Copyright (c) 2022 STMicroelectronics.
  10:Core/Src/stm32f4xx_it.c ****   * All rights reserved.
  11:Core/Src/stm32f4xx_it.c ****   *
  12:Core/Src/stm32f4xx_it.c ****   * This software is licensed under terms that can be found in the LICENSE file
  13:Core/Src/stm32f4xx_it.c ****   * in the root directory of this software component.
  14:Core/Src/stm32f4xx_it.c ****   * If no LICENSE file comes with this software, it is provided AS-IS.
  15:Core/Src/stm32f4xx_it.c ****   *
  16:Core/Src/stm32f4xx_it.c ****   ******************************************************************************
  17:Core/Src/stm32f4xx_it.c ****   */
  18:Core/Src/stm32f4xx_it.c **** /* USER CODE END Header */
  19:Core/Src/stm32f4xx_it.c **** 
  20:Core/Src/stm32f4xx_it.c **** /* Includes ------------------------------------------------------------------*/
  21:Core/Src/stm32f4xx_it.c **** #include "main.h"
  22:Core/Src/stm32f4xx_it.c **** #include "stm32f4xx_it.h"
  23:Core/Src/stm32f4xx_it.c **** /* Private includes ----------------------------------------------------------*/
  24:Core/Src/stm32f4xx_it.c **** /* USER CODE BEGIN Includes */
  25:Core/Src/stm32f4xx_it.c **** /* USER CODE END Includes */
  26:Core/Src/stm32f4xx_it.c **** 
  27:Core/Src/stm32f4xx_it.c **** /* Private typedef -----------------------------------------------------------*/
  28:Core/Src/stm32f4xx_it.c **** /* USER CODE BEGIN TD */
  29:Core/Src/stm32f4xx_it.c **** 
  30:Core/Src/stm32f4xx_it.c **** /* USER CODE END TD */
ARM GAS  C:\Users\zhaohe\AppData\Local\Temp\ccbz8Z52.s 			page 2


  31:Core/Src/stm32f4xx_it.c **** 
  32:Core/Src/stm32f4xx_it.c **** /* Private define ------------------------------------------------------------*/
  33:Core/Src/stm32f4xx_it.c **** /* USER CODE BEGIN PD */
  34:Core/Src/stm32f4xx_it.c **** 
  35:Core/Src/stm32f4xx_it.c **** /* USER CODE END PD */
  36:Core/Src/stm32f4xx_it.c **** 
  37:Core/Src/stm32f4xx_it.c **** /* Private macro -------------------------------------------------------------*/
  38:Core/Src/stm32f4xx_it.c **** /* USER CODE BEGIN PM */
  39:Core/Src/stm32f4xx_it.c **** 
  40:Core/Src/stm32f4xx_it.c **** /* USER CODE END PM */
  41:Core/Src/stm32f4xx_it.c **** 
  42:Core/Src/stm32f4xx_it.c **** /* Private variables ---------------------------------------------------------*/
  43:Core/Src/stm32f4xx_it.c **** /* USER CODE BEGIN PV */
  44:Core/Src/stm32f4xx_it.c **** 
  45:Core/Src/stm32f4xx_it.c **** /* USER CODE END PV */
  46:Core/Src/stm32f4xx_it.c **** 
  47:Core/Src/stm32f4xx_it.c **** /* Private function prototypes -----------------------------------------------*/
  48:Core/Src/stm32f4xx_it.c **** /* USER CODE BEGIN PFP */
  49:Core/Src/stm32f4xx_it.c **** 
  50:Core/Src/stm32f4xx_it.c **** /* USER CODE END PFP */
  51:Core/Src/stm32f4xx_it.c **** 
  52:Core/Src/stm32f4xx_it.c **** /* Private user code ---------------------------------------------------------*/
  53:Core/Src/stm32f4xx_it.c **** /* USER CODE BEGIN 0 */
  54:Core/Src/stm32f4xx_it.c **** 
  55:Core/Src/stm32f4xx_it.c **** /* USER CODE END 0 */
  56:Core/Src/stm32f4xx_it.c **** 
  57:Core/Src/stm32f4xx_it.c **** /* External variables --------------------------------------------------------*/
  58:Core/Src/stm32f4xx_it.c **** extern PCD_HandleTypeDef hpcd_USB_OTG_FS;
  59:Core/Src/stm32f4xx_it.c **** extern DMA_HandleTypeDef hdma_tim3_ch3;
  60:Core/Src/stm32f4xx_it.c **** extern DMA_HandleTypeDef hdma_tim3_ch4_up;
  61:Core/Src/stm32f4xx_it.c **** extern DMA_HandleTypeDef hdma_tim8_ch4_trig_com;
  62:Core/Src/stm32f4xx_it.c **** extern DMA_HandleTypeDef hdma_tim8_ch3;
  63:Core/Src/stm32f4xx_it.c **** extern TIM_HandleTypeDef htim7;
  64:Core/Src/stm32f4xx_it.c **** extern DMA_HandleTypeDef hdma_usart2_rx;
  65:Core/Src/stm32f4xx_it.c **** extern DMA_HandleTypeDef hdma_usart3_rx;
  66:Core/Src/stm32f4xx_it.c **** extern DMA_HandleTypeDef hdma_usart3_tx;
  67:Core/Src/stm32f4xx_it.c **** extern UART_HandleTypeDef huart1;
  68:Core/Src/stm32f4xx_it.c **** extern UART_HandleTypeDef huart2;
  69:Core/Src/stm32f4xx_it.c **** extern UART_HandleTypeDef huart3;
  70:Core/Src/stm32f4xx_it.c **** extern TIM_HandleTypeDef htim1;
  71:Core/Src/stm32f4xx_it.c **** 
  72:Core/Src/stm32f4xx_it.c **** /* USER CODE BEGIN EV */
  73:Core/Src/stm32f4xx_it.c **** 
  74:Core/Src/stm32f4xx_it.c **** /* USER CODE END EV */
  75:Core/Src/stm32f4xx_it.c **** 
  76:Core/Src/stm32f4xx_it.c **** /******************************************************************************/
  77:Core/Src/stm32f4xx_it.c **** /*           Cortex-M4 Processor Interruption and Exception Handlers          */
  78:Core/Src/stm32f4xx_it.c **** /******************************************************************************/
  79:Core/Src/stm32f4xx_it.c **** /**
  80:Core/Src/stm32f4xx_it.c ****   * @brief This function handles Non maskable interrupt.
  81:Core/Src/stm32f4xx_it.c ****   */
  82:Core/Src/stm32f4xx_it.c **** void NMI_Handler(void)
  83:Core/Src/stm32f4xx_it.c **** {
  29              		.loc 1 83 1 view -0
  30              		.cfi_startproc
  31              		@ Volatile: function does not return.
  32              		@ args = 0, pretend = 0, frame = 0
ARM GAS  C:\Users\zhaohe\AppData\Local\Temp\ccbz8Z52.s 			page 3


  33              		@ frame_needed = 0, uses_anonymous_args = 0
  34              		@ link register save eliminated.
  35              	.L2:
  84:Core/Src/stm32f4xx_it.c ****   /* USER CODE BEGIN NonMaskableInt_IRQn 0 */
  85:Core/Src/stm32f4xx_it.c **** 
  86:Core/Src/stm32f4xx_it.c ****   /* USER CODE END NonMaskableInt_IRQn 0 */
  87:Core/Src/stm32f4xx_it.c ****   /* USER CODE BEGIN NonMaskableInt_IRQn 1 */
  88:Core/Src/stm32f4xx_it.c ****   while (1)
  36              		.loc 1 88 3 discriminator 1 view .LVU1
  89:Core/Src/stm32f4xx_it.c ****   {
  90:Core/Src/stm32f4xx_it.c ****   }
  37              		.loc 1 90 3 discriminator 1 view .LVU2
  88:Core/Src/stm32f4xx_it.c ****   {
  38              		.loc 1 88 9 discriminator 1 view .LVU3
  39 0000 FEE7     		b	.L2
  40              		.cfi_endproc
  41              	.LFE130:
  43              		.section	.text.HardFault_Handler,"ax",%progbits
  44              		.align	1
  45              		.global	HardFault_Handler
  46              		.syntax unified
  47              		.thumb
  48              		.thumb_func
  50              	HardFault_Handler:
  51              	.LFB131:
  91:Core/Src/stm32f4xx_it.c ****   /* USER CODE END NonMaskableInt_IRQn 1 */
  92:Core/Src/stm32f4xx_it.c **** }
  93:Core/Src/stm32f4xx_it.c **** 
  94:Core/Src/stm32f4xx_it.c **** /**
  95:Core/Src/stm32f4xx_it.c ****   * @brief This function handles Hard fault interrupt.
  96:Core/Src/stm32f4xx_it.c ****   */
  97:Core/Src/stm32f4xx_it.c **** void HardFault_Handler(void)
  98:Core/Src/stm32f4xx_it.c **** {
  52              		.loc 1 98 1 view -0
  53              		.cfi_startproc
  54              		@ Volatile: function does not return.
  55              		@ args = 0, pretend = 0, frame = 0
  56              		@ frame_needed = 0, uses_anonymous_args = 0
  57              		@ link register save eliminated.
  58              	.L4:
  99:Core/Src/stm32f4xx_it.c ****   /* USER CODE BEGIN HardFault_IRQn 0 */
 100:Core/Src/stm32f4xx_it.c **** 
 101:Core/Src/stm32f4xx_it.c ****   /* USER CODE END HardFault_IRQn 0 */
 102:Core/Src/stm32f4xx_it.c ****   while (1)
  59              		.loc 1 102 3 discriminator 1 view .LVU5
 103:Core/Src/stm32f4xx_it.c ****   {
 104:Core/Src/stm32f4xx_it.c ****     /* USER CODE BEGIN W1_HardFault_IRQn 0 */
 105:Core/Src/stm32f4xx_it.c ****     /* USER CODE END W1_HardFault_IRQn 0 */
 106:Core/Src/stm32f4xx_it.c ****   }
  60              		.loc 1 106 3 discriminator 1 view .LVU6
 102:Core/Src/stm32f4xx_it.c ****   {
  61              		.loc 1 102 9 discriminator 1 view .LVU7
  62 0000 FEE7     		b	.L4
  63              		.cfi_endproc
  64              	.LFE131:
  66              		.section	.text.MemManage_Handler,"ax",%progbits
  67              		.align	1
ARM GAS  C:\Users\zhaohe\AppData\Local\Temp\ccbz8Z52.s 			page 4


  68              		.global	MemManage_Handler
  69              		.syntax unified
  70              		.thumb
  71              		.thumb_func
  73              	MemManage_Handler:
  74              	.LFB132:
 107:Core/Src/stm32f4xx_it.c **** }
 108:Core/Src/stm32f4xx_it.c **** 
 109:Core/Src/stm32f4xx_it.c **** /**
 110:Core/Src/stm32f4xx_it.c ****   * @brief This function handles Memory management fault.
 111:Core/Src/stm32f4xx_it.c ****   */
 112:Core/Src/stm32f4xx_it.c **** void MemManage_Handler(void)
 113:Core/Src/stm32f4xx_it.c **** {
  75              		.loc 1 113 1 view -0
  76              		.cfi_startproc
  77              		@ Volatile: function does not return.
  78              		@ args = 0, pretend = 0, frame = 0
  79              		@ frame_needed = 0, uses_anonymous_args = 0
  80              		@ link register save eliminated.
  81              	.L6:
 114:Core/Src/stm32f4xx_it.c ****   /* USER CODE BEGIN MemoryManagement_IRQn 0 */
 115:Core/Src/stm32f4xx_it.c **** 
 116:Core/Src/stm32f4xx_it.c ****   /* USER CODE END MemoryManagement_IRQn 0 */
 117:Core/Src/stm32f4xx_it.c ****   while (1)
  82              		.loc 1 117 3 discriminator 1 view .LVU9
 118:Core/Src/stm32f4xx_it.c ****   {
 119:Core/Src/stm32f4xx_it.c ****     /* USER CODE BEGIN W1_MemoryManagement_IRQn 0 */
 120:Core/Src/stm32f4xx_it.c ****     /* USER CODE END W1_MemoryManagement_IRQn 0 */
 121:Core/Src/stm32f4xx_it.c ****   }
  83              		.loc 1 121 3 discriminator 1 view .LVU10
 117:Core/Src/stm32f4xx_it.c ****   {
  84              		.loc 1 117 9 discriminator 1 view .LVU11
  85 0000 FEE7     		b	.L6
  86              		.cfi_endproc
  87              	.LFE132:
  89              		.section	.text.BusFault_Handler,"ax",%progbits
  90              		.align	1
  91              		.global	BusFault_Handler
  92              		.syntax unified
  93              		.thumb
  94              		.thumb_func
  96              	BusFault_Handler:
  97              	.LFB133:
 122:Core/Src/stm32f4xx_it.c **** }
 123:Core/Src/stm32f4xx_it.c **** 
 124:Core/Src/stm32f4xx_it.c **** /**
 125:Core/Src/stm32f4xx_it.c ****   * @brief This function handles Pre-fetch fault, memory access fault.
 126:Core/Src/stm32f4xx_it.c ****   */
 127:Core/Src/stm32f4xx_it.c **** void BusFault_Handler(void)
 128:Core/Src/stm32f4xx_it.c **** {
  98              		.loc 1 128 1 view -0
  99              		.cfi_startproc
 100              		@ Volatile: function does not return.
 101              		@ args = 0, pretend = 0, frame = 0
 102              		@ frame_needed = 0, uses_anonymous_args = 0
 103              		@ link register save eliminated.
 104              	.L8:
ARM GAS  C:\Users\zhaohe\AppData\Local\Temp\ccbz8Z52.s 			page 5


 129:Core/Src/stm32f4xx_it.c ****   /* USER CODE BEGIN BusFault_IRQn 0 */
 130:Core/Src/stm32f4xx_it.c **** 
 131:Core/Src/stm32f4xx_it.c ****   /* USER CODE END BusFault_IRQn 0 */
 132:Core/Src/stm32f4xx_it.c ****   while (1)
 105              		.loc 1 132 3 discriminator 1 view .LVU13
 133:Core/Src/stm32f4xx_it.c ****   {
 134:Core/Src/stm32f4xx_it.c ****     /* USER CODE BEGIN W1_BusFault_IRQn 0 */
 135:Core/Src/stm32f4xx_it.c ****     /* USER CODE END W1_BusFault_IRQn 0 */
 136:Core/Src/stm32f4xx_it.c ****   }
 106              		.loc 1 136 3 discriminator 1 view .LVU14
 132:Core/Src/stm32f4xx_it.c ****   {
 107              		.loc 1 132 9 discriminator 1 view .LVU15
 108 0000 FEE7     		b	.L8
 109              		.cfi_endproc
 110              	.LFE133:
 112              		.section	.text.UsageFault_Handler,"ax",%progbits
 113              		.align	1
 114              		.global	UsageFault_Handler
 115              		.syntax unified
 116              		.thumb
 117              		.thumb_func
 119              	UsageFault_Handler:
 120              	.LFB134:
 137:Core/Src/stm32f4xx_it.c **** }
 138:Core/Src/stm32f4xx_it.c **** 
 139:Core/Src/stm32f4xx_it.c **** /**
 140:Core/Src/stm32f4xx_it.c ****   * @brief This function handles Undefined instruction or illegal state.
 141:Core/Src/stm32f4xx_it.c ****   */
 142:Core/Src/stm32f4xx_it.c **** void UsageFault_Handler(void)
 143:Core/Src/stm32f4xx_it.c **** {
 121              		.loc 1 143 1 view -0
 122              		.cfi_startproc
 123              		@ Volatile: function does not return.
 124              		@ args = 0, pretend = 0, frame = 0
 125              		@ frame_needed = 0, uses_anonymous_args = 0
 126              		@ link register save eliminated.
 127              	.L10:
 144:Core/Src/stm32f4xx_it.c ****   /* USER CODE BEGIN UsageFault_IRQn 0 */
 145:Core/Src/stm32f4xx_it.c **** 
 146:Core/Src/stm32f4xx_it.c ****   /* USER CODE END UsageFault_IRQn 0 */
 147:Core/Src/stm32f4xx_it.c ****   while (1)
 128              		.loc 1 147 3 discriminator 1 view .LVU17
 148:Core/Src/stm32f4xx_it.c ****   {
 149:Core/Src/stm32f4xx_it.c ****     /* USER CODE BEGIN W1_UsageFault_IRQn 0 */
 150:Core/Src/stm32f4xx_it.c ****     /* USER CODE END W1_UsageFault_IRQn 0 */
 151:Core/Src/stm32f4xx_it.c ****   }
 129              		.loc 1 151 3 discriminator 1 view .LVU18
 147:Core/Src/stm32f4xx_it.c ****   {
 130              		.loc 1 147 9 discriminator 1 view .LVU19
 131 0000 FEE7     		b	.L10
 132              		.cfi_endproc
 133              	.LFE134:
 135              		.section	.text.DebugMon_Handler,"ax",%progbits
 136              		.align	1
 137              		.global	DebugMon_Handler
 138              		.syntax unified
 139              		.thumb
ARM GAS  C:\Users\zhaohe\AppData\Local\Temp\ccbz8Z52.s 			page 6


 140              		.thumb_func
 142              	DebugMon_Handler:
 143              	.LFB135:
 152:Core/Src/stm32f4xx_it.c **** }
 153:Core/Src/stm32f4xx_it.c **** 
 154:Core/Src/stm32f4xx_it.c **** /**
 155:Core/Src/stm32f4xx_it.c ****   * @brief This function handles Debug monitor.
 156:Core/Src/stm32f4xx_it.c ****   */
 157:Core/Src/stm32f4xx_it.c **** void DebugMon_Handler(void)
 158:Core/Src/stm32f4xx_it.c **** {
 144              		.loc 1 158 1 view -0
 145              		.cfi_startproc
 146              		@ args = 0, pretend = 0, frame = 0
 147              		@ frame_needed = 0, uses_anonymous_args = 0
 148              		@ link register save eliminated.
 159:Core/Src/stm32f4xx_it.c ****   /* USER CODE BEGIN DebugMonitor_IRQn 0 */
 160:Core/Src/stm32f4xx_it.c **** 
 161:Core/Src/stm32f4xx_it.c ****   /* USER CODE END DebugMonitor_IRQn 0 */
 162:Core/Src/stm32f4xx_it.c ****   /* USER CODE BEGIN DebugMonitor_IRQn 1 */
 163:Core/Src/stm32f4xx_it.c **** 
 164:Core/Src/stm32f4xx_it.c ****   /* USER CODE END DebugMonitor_IRQn 1 */
 165:Core/Src/stm32f4xx_it.c **** }
 149              		.loc 1 165 1 view .LVU21
 150 0000 7047     		bx	lr
 151              		.cfi_endproc
 152              	.LFE135:
 154              		.section	.text.EXTI4_IRQHandler,"ax",%progbits
 155              		.align	1
 156              		.global	EXTI4_IRQHandler
 157              		.syntax unified
 158              		.thumb
 159              		.thumb_func
 161              	EXTI4_IRQHandler:
 162              	.LFB136:
 166:Core/Src/stm32f4xx_it.c **** 
 167:Core/Src/stm32f4xx_it.c **** /******************************************************************************/
 168:Core/Src/stm32f4xx_it.c **** /* STM32F4xx Peripheral Interrupt Handlers                                    */
 169:Core/Src/stm32f4xx_it.c **** /* Add here the Interrupt Handlers for the used peripherals.                  */
 170:Core/Src/stm32f4xx_it.c **** /* For the available peripheral interrupt handler names,                      */
 171:Core/Src/stm32f4xx_it.c **** /* please refer to the startup file (startup_stm32f4xx.s).                    */
 172:Core/Src/stm32f4xx_it.c **** /******************************************************************************/
 173:Core/Src/stm32f4xx_it.c **** 
 174:Core/Src/stm32f4xx_it.c **** /**
 175:Core/Src/stm32f4xx_it.c ****   * @brief This function handles EXTI line4 interrupt.
 176:Core/Src/stm32f4xx_it.c ****   */
 177:Core/Src/stm32f4xx_it.c **** void EXTI4_IRQHandler(void)
 178:Core/Src/stm32f4xx_it.c **** {
 163              		.loc 1 178 1 view -0
 164              		.cfi_startproc
 165              		@ args = 0, pretend = 0, frame = 0
 166              		@ frame_needed = 0, uses_anonymous_args = 0
 167 0000 08B5     		push	{r3, lr}
 168              	.LCFI0:
 169              		.cfi_def_cfa_offset 8
 170              		.cfi_offset 3, -8
 171              		.cfi_offset 14, -4
 179:Core/Src/stm32f4xx_it.c ****   /* USER CODE BEGIN EXTI4_IRQn 0 */
ARM GAS  C:\Users\zhaohe\AppData\Local\Temp\ccbz8Z52.s 			page 7


 180:Core/Src/stm32f4xx_it.c **** 
 181:Core/Src/stm32f4xx_it.c ****   /* USER CODE END EXTI4_IRQn 0 */
 182:Core/Src/stm32f4xx_it.c ****   HAL_GPIO_EXTI_IRQHandler(GYRO_EXIT_Pin);
 172              		.loc 1 182 3 view .LVU23
 173 0002 1020     		movs	r0, #16
 174 0004 FFF7FEFF 		bl	HAL_GPIO_EXTI_IRQHandler
 175              	.LVL0:
 183:Core/Src/stm32f4xx_it.c ****   /* USER CODE BEGIN EXTI4_IRQn 1 */
 184:Core/Src/stm32f4xx_it.c **** 
 185:Core/Src/stm32f4xx_it.c ****   /* USER CODE END EXTI4_IRQn 1 */
 186:Core/Src/stm32f4xx_it.c **** }
 176              		.loc 1 186 1 is_stmt 0 view .LVU24
 177 0008 08BD     		pop	{r3, pc}
 178              		.cfi_endproc
 179              	.LFE136:
 181              		.section	.text.DMA1_Stream1_IRQHandler,"ax",%progbits
 182              		.align	1
 183              		.global	DMA1_Stream1_IRQHandler
 184              		.syntax unified
 185              		.thumb
 186              		.thumb_func
 188              	DMA1_Stream1_IRQHandler:
 189              	.LFB137:
 187:Core/Src/stm32f4xx_it.c **** 
 188:Core/Src/stm32f4xx_it.c **** /**
 189:Core/Src/stm32f4xx_it.c ****   * @brief This function handles DMA1 stream1 global interrupt.
 190:Core/Src/stm32f4xx_it.c ****   */
 191:Core/Src/stm32f4xx_it.c **** void DMA1_Stream1_IRQHandler(void)
 192:Core/Src/stm32f4xx_it.c **** {
 190              		.loc 1 192 1 is_stmt 1 view -0
 191              		.cfi_startproc
 192              		@ args = 0, pretend = 0, frame = 0
 193              		@ frame_needed = 0, uses_anonymous_args = 0
 194 0000 08B5     		push	{r3, lr}
 195              	.LCFI1:
 196              		.cfi_def_cfa_offset 8
 197              		.cfi_offset 3, -8
 198              		.cfi_offset 14, -4
 193:Core/Src/stm32f4xx_it.c ****   /* USER CODE BEGIN DMA1_Stream1_IRQn 0 */
 194:Core/Src/stm32f4xx_it.c **** 
 195:Core/Src/stm32f4xx_it.c ****   /* USER CODE END DMA1_Stream1_IRQn 0 */
 196:Core/Src/stm32f4xx_it.c ****   HAL_DMA_IRQHandler(&hdma_usart3_rx);
 199              		.loc 1 196 3 view .LVU26
 200 0002 0248     		ldr	r0, .L16
 201 0004 FFF7FEFF 		bl	HAL_DMA_IRQHandler
 202              	.LVL1:
 197:Core/Src/stm32f4xx_it.c ****   /* USER CODE BEGIN DMA1_Stream1_IRQn 1 */
 198:Core/Src/stm32f4xx_it.c **** 
 199:Core/Src/stm32f4xx_it.c ****   /* USER CODE END DMA1_Stream1_IRQn 1 */
 200:Core/Src/stm32f4xx_it.c **** }
 203              		.loc 1 200 1 is_stmt 0 view .LVU27
 204 0008 08BD     		pop	{r3, pc}
 205              	.L17:
 206 000a 00BF     		.align	2
 207              	.L16:
 208 000c 00000000 		.word	hdma_usart3_rx
 209              		.cfi_endproc
ARM GAS  C:\Users\zhaohe\AppData\Local\Temp\ccbz8Z52.s 			page 8


 210              	.LFE137:
 212              		.section	.text.DMA1_Stream2_IRQHandler,"ax",%progbits
 213              		.align	1
 214              		.global	DMA1_Stream2_IRQHandler
 215              		.syntax unified
 216              		.thumb
 217              		.thumb_func
 219              	DMA1_Stream2_IRQHandler:
 220              	.LFB138:
 201:Core/Src/stm32f4xx_it.c **** 
 202:Core/Src/stm32f4xx_it.c **** /**
 203:Core/Src/stm32f4xx_it.c ****   * @brief This function handles DMA1 stream2 global interrupt.
 204:Core/Src/stm32f4xx_it.c ****   */
 205:Core/Src/stm32f4xx_it.c **** void DMA1_Stream2_IRQHandler(void)
 206:Core/Src/stm32f4xx_it.c **** {
 221              		.loc 1 206 1 is_stmt 1 view -0
 222              		.cfi_startproc
 223              		@ args = 0, pretend = 0, frame = 0
 224              		@ frame_needed = 0, uses_anonymous_args = 0
 225 0000 08B5     		push	{r3, lr}
 226              	.LCFI2:
 227              		.cfi_def_cfa_offset 8
 228              		.cfi_offset 3, -8
 229              		.cfi_offset 14, -4
 207:Core/Src/stm32f4xx_it.c ****   /* USER CODE BEGIN DMA1_Stream2_IRQn 0 */
 208:Core/Src/stm32f4xx_it.c **** 
 209:Core/Src/stm32f4xx_it.c ****   /* USER CODE END DMA1_Stream2_IRQn 0 */
 210:Core/Src/stm32f4xx_it.c ****   HAL_DMA_IRQHandler(&hdma_tim3_ch4_up);
 230              		.loc 1 210 3 view .LVU29
 231 0002 0248     		ldr	r0, .L20
 232 0004 FFF7FEFF 		bl	HAL_DMA_IRQHandler
 233              	.LVL2:
 211:Core/Src/stm32f4xx_it.c ****   /* USER CODE BEGIN DMA1_Stream2_IRQn 1 */
 212:Core/Src/stm32f4xx_it.c **** 
 213:Core/Src/stm32f4xx_it.c ****   /* USER CODE END DMA1_Stream2_IRQn 1 */
 214:Core/Src/stm32f4xx_it.c **** }
 234              		.loc 1 214 1 is_stmt 0 view .LVU30
 235 0008 08BD     		pop	{r3, pc}
 236              	.L21:
 237 000a 00BF     		.align	2
 238              	.L20:
 239 000c 00000000 		.word	hdma_tim3_ch4_up
 240              		.cfi_endproc
 241              	.LFE138:
 243              		.section	.text.DMA1_Stream3_IRQHandler,"ax",%progbits
 244              		.align	1
 245              		.global	DMA1_Stream3_IRQHandler
 246              		.syntax unified
 247              		.thumb
 248              		.thumb_func
 250              	DMA1_Stream3_IRQHandler:
 251              	.LFB139:
 215:Core/Src/stm32f4xx_it.c **** 
 216:Core/Src/stm32f4xx_it.c **** /**
 217:Core/Src/stm32f4xx_it.c ****   * @brief This function handles DMA1 stream3 global interrupt.
 218:Core/Src/stm32f4xx_it.c ****   */
 219:Core/Src/stm32f4xx_it.c **** void DMA1_Stream3_IRQHandler(void)
ARM GAS  C:\Users\zhaohe\AppData\Local\Temp\ccbz8Z52.s 			page 9


 220:Core/Src/stm32f4xx_it.c **** {
 252              		.loc 1 220 1 is_stmt 1 view -0
 253              		.cfi_startproc
 254              		@ args = 0, pretend = 0, frame = 0
 255              		@ frame_needed = 0, uses_anonymous_args = 0
 256 0000 08B5     		push	{r3, lr}
 257              	.LCFI3:
 258              		.cfi_def_cfa_offset 8
 259              		.cfi_offset 3, -8
 260              		.cfi_offset 14, -4
 221:Core/Src/stm32f4xx_it.c ****   /* USER CODE BEGIN DMA1_Stream3_IRQn 0 */
 222:Core/Src/stm32f4xx_it.c **** 
 223:Core/Src/stm32f4xx_it.c ****   /* USER CODE END DMA1_Stream3_IRQn 0 */
 224:Core/Src/stm32f4xx_it.c ****   HAL_DMA_IRQHandler(&hdma_usart3_tx);
 261              		.loc 1 224 3 view .LVU32
 262 0002 0248     		ldr	r0, .L24
 263 0004 FFF7FEFF 		bl	HAL_DMA_IRQHandler
 264              	.LVL3:
 225:Core/Src/stm32f4xx_it.c ****   /* USER CODE BEGIN DMA1_Stream3_IRQn 1 */
 226:Core/Src/stm32f4xx_it.c **** 
 227:Core/Src/stm32f4xx_it.c ****   /* USER CODE END DMA1_Stream3_IRQn 1 */
 228:Core/Src/stm32f4xx_it.c **** }
 265              		.loc 1 228 1 is_stmt 0 view .LVU33
 266 0008 08BD     		pop	{r3, pc}
 267              	.L25:
 268 000a 00BF     		.align	2
 269              	.L24:
 270 000c 00000000 		.word	hdma_usart3_tx
 271              		.cfi_endproc
 272              	.LFE139:
 274              		.section	.text.DMA1_Stream5_IRQHandler,"ax",%progbits
 275              		.align	1
 276              		.global	DMA1_Stream5_IRQHandler
 277              		.syntax unified
 278              		.thumb
 279              		.thumb_func
 281              	DMA1_Stream5_IRQHandler:
 282              	.LFB140:
 229:Core/Src/stm32f4xx_it.c **** 
 230:Core/Src/stm32f4xx_it.c **** /**
 231:Core/Src/stm32f4xx_it.c ****   * @brief This function handles DMA1 stream5 global interrupt.
 232:Core/Src/stm32f4xx_it.c ****   */
 233:Core/Src/stm32f4xx_it.c **** void DMA1_Stream5_IRQHandler(void)
 234:Core/Src/stm32f4xx_it.c **** {
 283              		.loc 1 234 1 is_stmt 1 view -0
 284              		.cfi_startproc
 285              		@ args = 0, pretend = 0, frame = 0
 286              		@ frame_needed = 0, uses_anonymous_args = 0
 287 0000 08B5     		push	{r3, lr}
 288              	.LCFI4:
 289              		.cfi_def_cfa_offset 8
 290              		.cfi_offset 3, -8
 291              		.cfi_offset 14, -4
 235:Core/Src/stm32f4xx_it.c ****   /* USER CODE BEGIN DMA1_Stream5_IRQn 0 */
 236:Core/Src/stm32f4xx_it.c **** 
 237:Core/Src/stm32f4xx_it.c ****   /* USER CODE END DMA1_Stream5_IRQn 0 */
 238:Core/Src/stm32f4xx_it.c ****   HAL_DMA_IRQHandler(&hdma_usart2_rx);
ARM GAS  C:\Users\zhaohe\AppData\Local\Temp\ccbz8Z52.s 			page 10


 292              		.loc 1 238 3 view .LVU35
 293 0002 0248     		ldr	r0, .L28
 294 0004 FFF7FEFF 		bl	HAL_DMA_IRQHandler
 295              	.LVL4:
 239:Core/Src/stm32f4xx_it.c ****   /* USER CODE BEGIN DMA1_Stream5_IRQn 1 */
 240:Core/Src/stm32f4xx_it.c **** 
 241:Core/Src/stm32f4xx_it.c ****   /* USER CODE END DMA1_Stream5_IRQn 1 */
 242:Core/Src/stm32f4xx_it.c **** }
 296              		.loc 1 242 1 is_stmt 0 view .LVU36
 297 0008 08BD     		pop	{r3, pc}
 298              	.L29:
 299 000a 00BF     		.align	2
 300              	.L28:
 301 000c 00000000 		.word	hdma_usart2_rx
 302              		.cfi_endproc
 303              	.LFE140:
 305              		.section	.text.TIM1_UP_TIM10_IRQHandler,"ax",%progbits
 306              		.align	1
 307              		.global	TIM1_UP_TIM10_IRQHandler
 308              		.syntax unified
 309              		.thumb
 310              		.thumb_func
 312              	TIM1_UP_TIM10_IRQHandler:
 313              	.LFB141:
 243:Core/Src/stm32f4xx_it.c **** 
 244:Core/Src/stm32f4xx_it.c **** /**
 245:Core/Src/stm32f4xx_it.c ****   * @brief This function handles TIM1 update interrupt and TIM10 global interrupt.
 246:Core/Src/stm32f4xx_it.c ****   */
 247:Core/Src/stm32f4xx_it.c **** void TIM1_UP_TIM10_IRQHandler(void)
 248:Core/Src/stm32f4xx_it.c **** {
 314              		.loc 1 248 1 is_stmt 1 view -0
 315              		.cfi_startproc
 316              		@ args = 0, pretend = 0, frame = 0
 317              		@ frame_needed = 0, uses_anonymous_args = 0
 318 0000 08B5     		push	{r3, lr}
 319              	.LCFI5:
 320              		.cfi_def_cfa_offset 8
 321              		.cfi_offset 3, -8
 322              		.cfi_offset 14, -4
 249:Core/Src/stm32f4xx_it.c ****   /* USER CODE BEGIN TIM1_UP_TIM10_IRQn 0 */
 250:Core/Src/stm32f4xx_it.c **** 
 251:Core/Src/stm32f4xx_it.c ****   /* USER CODE END TIM1_UP_TIM10_IRQn 0 */
 252:Core/Src/stm32f4xx_it.c ****   HAL_TIM_IRQHandler(&htim1);
 323              		.loc 1 252 3 view .LVU38
 324 0002 0248     		ldr	r0, .L32
 325 0004 FFF7FEFF 		bl	HAL_TIM_IRQHandler
 326              	.LVL5:
 253:Core/Src/stm32f4xx_it.c ****   /* USER CODE BEGIN TIM1_UP_TIM10_IRQn 1 */
 254:Core/Src/stm32f4xx_it.c **** 
 255:Core/Src/stm32f4xx_it.c ****   /* USER CODE END TIM1_UP_TIM10_IRQn 1 */
 256:Core/Src/stm32f4xx_it.c **** }
 327              		.loc 1 256 1 is_stmt 0 view .LVU39
 328 0008 08BD     		pop	{r3, pc}
 329              	.L33:
 330 000a 00BF     		.align	2
 331              	.L32:
 332 000c 00000000 		.word	htim1
ARM GAS  C:\Users\zhaohe\AppData\Local\Temp\ccbz8Z52.s 			page 11


 333              		.cfi_endproc
 334              	.LFE141:
 336              		.section	.text.USART1_IRQHandler,"ax",%progbits
 337              		.align	1
 338              		.global	USART1_IRQHandler
 339              		.syntax unified
 340              		.thumb
 341              		.thumb_func
 343              	USART1_IRQHandler:
 344              	.LFB142:
 257:Core/Src/stm32f4xx_it.c **** 
 258:Core/Src/stm32f4xx_it.c **** /**
 259:Core/Src/stm32f4xx_it.c ****   * @brief This function handles USART1 global interrupt.
 260:Core/Src/stm32f4xx_it.c ****   */
 261:Core/Src/stm32f4xx_it.c **** void USART1_IRQHandler(void)
 262:Core/Src/stm32f4xx_it.c **** {
 345              		.loc 1 262 1 is_stmt 1 view -0
 346              		.cfi_startproc
 347              		@ args = 0, pretend = 0, frame = 0
 348              		@ frame_needed = 0, uses_anonymous_args = 0
 349 0000 08B5     		push	{r3, lr}
 350              	.LCFI6:
 351              		.cfi_def_cfa_offset 8
 352              		.cfi_offset 3, -8
 353              		.cfi_offset 14, -4
 263:Core/Src/stm32f4xx_it.c ****   /* USER CODE BEGIN USART1_IRQn 0 */
 264:Core/Src/stm32f4xx_it.c **** 
 265:Core/Src/stm32f4xx_it.c ****   /* USER CODE END USART1_IRQn 0 */
 266:Core/Src/stm32f4xx_it.c ****   HAL_UART_IRQHandler(&huart1);
 354              		.loc 1 266 3 view .LVU41
 355 0002 0248     		ldr	r0, .L36
 356 0004 FFF7FEFF 		bl	HAL_UART_IRQHandler
 357              	.LVL6:
 267:Core/Src/stm32f4xx_it.c ****   /* USER CODE BEGIN USART1_IRQn 1 */
 268:Core/Src/stm32f4xx_it.c **** 
 269:Core/Src/stm32f4xx_it.c ****   /* USER CODE END USART1_IRQn 1 */
 270:Core/Src/stm32f4xx_it.c **** }
 358              		.loc 1 270 1 is_stmt 0 view .LVU42
 359 0008 08BD     		pop	{r3, pc}
 360              	.L37:
 361 000a 00BF     		.align	2
 362              	.L36:
 363 000c 00000000 		.word	huart1
 364              		.cfi_endproc
 365              	.LFE142:
 367              		.section	.text.USART2_IRQHandler,"ax",%progbits
 368              		.align	1
 369              		.global	USART2_IRQHandler
 370              		.syntax unified
 371              		.thumb
 372              		.thumb_func
 374              	USART2_IRQHandler:
 375              	.LFB143:
 271:Core/Src/stm32f4xx_it.c **** 
 272:Core/Src/stm32f4xx_it.c **** /**
 273:Core/Src/stm32f4xx_it.c ****   * @brief This function handles USART2 global interrupt.
 274:Core/Src/stm32f4xx_it.c ****   */
ARM GAS  C:\Users\zhaohe\AppData\Local\Temp\ccbz8Z52.s 			page 12


 275:Core/Src/stm32f4xx_it.c **** void USART2_IRQHandler(void)
 276:Core/Src/stm32f4xx_it.c **** {
 376              		.loc 1 276 1 is_stmt 1 view -0
 377              		.cfi_startproc
 378              		@ args = 0, pretend = 0, frame = 0
 379              		@ frame_needed = 0, uses_anonymous_args = 0
 380 0000 08B5     		push	{r3, lr}
 381              	.LCFI7:
 382              		.cfi_def_cfa_offset 8
 383              		.cfi_offset 3, -8
 384              		.cfi_offset 14, -4
 277:Core/Src/stm32f4xx_it.c ****   /* USER CODE BEGIN USART2_IRQn 0 */
 278:Core/Src/stm32f4xx_it.c **** 
 279:Core/Src/stm32f4xx_it.c ****   /* USER CODE END USART2_IRQn 0 */
 280:Core/Src/stm32f4xx_it.c ****   HAL_UART_IRQHandler(&huart2);
 385              		.loc 1 280 3 view .LVU44
 386 0002 0248     		ldr	r0, .L40
 387 0004 FFF7FEFF 		bl	HAL_UART_IRQHandler
 388              	.LVL7:
 281:Core/Src/stm32f4xx_it.c ****   /* USER CODE BEGIN USART2_IRQn 1 */
 282:Core/Src/stm32f4xx_it.c **** 
 283:Core/Src/stm32f4xx_it.c ****   /* USER CODE END USART2_IRQn 1 */
 284:Core/Src/stm32f4xx_it.c **** }
 389              		.loc 1 284 1 is_stmt 0 view .LVU45
 390 0008 08BD     		pop	{r3, pc}
 391              	.L41:
 392 000a 00BF     		.align	2
 393              	.L40:
 394 000c 00000000 		.word	huart2
 395              		.cfi_endproc
 396              	.LFE143:
 398              		.section	.text.USART3_IRQHandler,"ax",%progbits
 399              		.align	1
 400              		.global	USART3_IRQHandler
 401              		.syntax unified
 402              		.thumb
 403              		.thumb_func
 405              	USART3_IRQHandler:
 406              	.LFB144:
 285:Core/Src/stm32f4xx_it.c **** 
 286:Core/Src/stm32f4xx_it.c **** /**
 287:Core/Src/stm32f4xx_it.c ****   * @brief This function handles USART3 global interrupt.
 288:Core/Src/stm32f4xx_it.c ****   */
 289:Core/Src/stm32f4xx_it.c **** void USART3_IRQHandler(void)
 290:Core/Src/stm32f4xx_it.c **** {
 407              		.loc 1 290 1 is_stmt 1 view -0
 408              		.cfi_startproc
 409              		@ args = 0, pretend = 0, frame = 0
 410              		@ frame_needed = 0, uses_anonymous_args = 0
 411 0000 08B5     		push	{r3, lr}
 412              	.LCFI8:
 413              		.cfi_def_cfa_offset 8
 414              		.cfi_offset 3, -8
 415              		.cfi_offset 14, -4
 291:Core/Src/stm32f4xx_it.c ****   /* USER CODE BEGIN USART3_IRQn 0 */
 292:Core/Src/stm32f4xx_it.c **** 
 293:Core/Src/stm32f4xx_it.c ****   /* USER CODE END USART3_IRQn 0 */
ARM GAS  C:\Users\zhaohe\AppData\Local\Temp\ccbz8Z52.s 			page 13


 294:Core/Src/stm32f4xx_it.c ****   HAL_UART_IRQHandler(&huart3);
 416              		.loc 1 294 3 view .LVU47
 417 0002 0248     		ldr	r0, .L44
 418 0004 FFF7FEFF 		bl	HAL_UART_IRQHandler
 419              	.LVL8:
 295:Core/Src/stm32f4xx_it.c ****   /* USER CODE BEGIN USART3_IRQn 1 */
 296:Core/Src/stm32f4xx_it.c **** 
 297:Core/Src/stm32f4xx_it.c ****   /* USER CODE END USART3_IRQn 1 */
 298:Core/Src/stm32f4xx_it.c **** }
 420              		.loc 1 298 1 is_stmt 0 view .LVU48
 421 0008 08BD     		pop	{r3, pc}
 422              	.L45:
 423 000a 00BF     		.align	2
 424              	.L44:
 425 000c 00000000 		.word	huart3
 426              		.cfi_endproc
 427              	.LFE144:
 429              		.section	.text.DMA1_Stream7_IRQHandler,"ax",%progbits
 430              		.align	1
 431              		.global	DMA1_Stream7_IRQHandler
 432              		.syntax unified
 433              		.thumb
 434              		.thumb_func
 436              	DMA1_Stream7_IRQHandler:
 437              	.LFB145:
 299:Core/Src/stm32f4xx_it.c **** 
 300:Core/Src/stm32f4xx_it.c **** /**
 301:Core/Src/stm32f4xx_it.c ****   * @brief This function handles DMA1 stream7 global interrupt.
 302:Core/Src/stm32f4xx_it.c ****   */
 303:Core/Src/stm32f4xx_it.c **** void DMA1_Stream7_IRQHandler(void)
 304:Core/Src/stm32f4xx_it.c **** {
 438              		.loc 1 304 1 is_stmt 1 view -0
 439              		.cfi_startproc
 440              		@ args = 0, pretend = 0, frame = 0
 441              		@ frame_needed = 0, uses_anonymous_args = 0
 442 0000 08B5     		push	{r3, lr}
 443              	.LCFI9:
 444              		.cfi_def_cfa_offset 8
 445              		.cfi_offset 3, -8
 446              		.cfi_offset 14, -4
 305:Core/Src/stm32f4xx_it.c ****   /* USER CODE BEGIN DMA1_Stream7_IRQn 0 */
 306:Core/Src/stm32f4xx_it.c **** 
 307:Core/Src/stm32f4xx_it.c ****   /* USER CODE END DMA1_Stream7_IRQn 0 */
 308:Core/Src/stm32f4xx_it.c ****   HAL_DMA_IRQHandler(&hdma_tim3_ch3);
 447              		.loc 1 308 3 view .LVU50
 448 0002 0248     		ldr	r0, .L48
 449 0004 FFF7FEFF 		bl	HAL_DMA_IRQHandler
 450              	.LVL9:
 309:Core/Src/stm32f4xx_it.c ****   /* USER CODE BEGIN DMA1_Stream7_IRQn 1 */
 310:Core/Src/stm32f4xx_it.c **** 
 311:Core/Src/stm32f4xx_it.c ****   /* USER CODE END DMA1_Stream7_IRQn 1 */
 312:Core/Src/stm32f4xx_it.c **** }
 451              		.loc 1 312 1 is_stmt 0 view .LVU51
 452 0008 08BD     		pop	{r3, pc}
 453              	.L49:
 454 000a 00BF     		.align	2
 455              	.L48:
ARM GAS  C:\Users\zhaohe\AppData\Local\Temp\ccbz8Z52.s 			page 14


 456 000c 00000000 		.word	hdma_tim3_ch3
 457              		.cfi_endproc
 458              	.LFE145:
 460              		.section	.text.TIM7_IRQHandler,"ax",%progbits
 461              		.align	1
 462              		.global	TIM7_IRQHandler
 463              		.syntax unified
 464              		.thumb
 465              		.thumb_func
 467              	TIM7_IRQHandler:
 468              	.LFB146:
 313:Core/Src/stm32f4xx_it.c **** 
 314:Core/Src/stm32f4xx_it.c **** /**
 315:Core/Src/stm32f4xx_it.c ****   * @brief This function handles TIM7 global interrupt.
 316:Core/Src/stm32f4xx_it.c ****   */
 317:Core/Src/stm32f4xx_it.c **** void TIM7_IRQHandler(void)
 318:Core/Src/stm32f4xx_it.c **** {
 469              		.loc 1 318 1 is_stmt 1 view -0
 470              		.cfi_startproc
 471              		@ args = 0, pretend = 0, frame = 0
 472              		@ frame_needed = 0, uses_anonymous_args = 0
 473 0000 08B5     		push	{r3, lr}
 474              	.LCFI10:
 475              		.cfi_def_cfa_offset 8
 476              		.cfi_offset 3, -8
 477              		.cfi_offset 14, -4
 319:Core/Src/stm32f4xx_it.c ****   /* USER CODE BEGIN TIM7_IRQn 0 */
 320:Core/Src/stm32f4xx_it.c **** 
 321:Core/Src/stm32f4xx_it.c ****   /* USER CODE END TIM7_IRQn 0 */
 322:Core/Src/stm32f4xx_it.c ****   HAL_TIM_IRQHandler(&htim7);
 478              		.loc 1 322 3 view .LVU53
 479 0002 0248     		ldr	r0, .L52
 480 0004 FFF7FEFF 		bl	HAL_TIM_IRQHandler
 481              	.LVL10:
 323:Core/Src/stm32f4xx_it.c ****   /* USER CODE BEGIN TIM7_IRQn 1 */
 324:Core/Src/stm32f4xx_it.c **** 
 325:Core/Src/stm32f4xx_it.c ****   /* USER CODE END TIM7_IRQn 1 */
 326:Core/Src/stm32f4xx_it.c **** }
 482              		.loc 1 326 1 is_stmt 0 view .LVU54
 483 0008 08BD     		pop	{r3, pc}
 484              	.L53:
 485 000a 00BF     		.align	2
 486              	.L52:
 487 000c 00000000 		.word	htim7
 488              		.cfi_endproc
 489              	.LFE146:
 491              		.section	.text.DMA2_Stream4_IRQHandler,"ax",%progbits
 492              		.align	1
 493              		.global	DMA2_Stream4_IRQHandler
 494              		.syntax unified
 495              		.thumb
 496              		.thumb_func
 498              	DMA2_Stream4_IRQHandler:
 499              	.LFB147:
 327:Core/Src/stm32f4xx_it.c **** 
 328:Core/Src/stm32f4xx_it.c **** /**
 329:Core/Src/stm32f4xx_it.c ****   * @brief This function handles DMA2 stream4 global interrupt.
ARM GAS  C:\Users\zhaohe\AppData\Local\Temp\ccbz8Z52.s 			page 15


 330:Core/Src/stm32f4xx_it.c ****   */
 331:Core/Src/stm32f4xx_it.c **** void DMA2_Stream4_IRQHandler(void)
 332:Core/Src/stm32f4xx_it.c **** {
 500              		.loc 1 332 1 is_stmt 1 view -0
 501              		.cfi_startproc
 502              		@ args = 0, pretend = 0, frame = 0
 503              		@ frame_needed = 0, uses_anonymous_args = 0
 504 0000 08B5     		push	{r3, lr}
 505              	.LCFI11:
 506              		.cfi_def_cfa_offset 8
 507              		.cfi_offset 3, -8
 508              		.cfi_offset 14, -4
 333:Core/Src/stm32f4xx_it.c ****   /* USER CODE BEGIN DMA2_Stream4_IRQn 0 */
 334:Core/Src/stm32f4xx_it.c **** 
 335:Core/Src/stm32f4xx_it.c ****   /* USER CODE END DMA2_Stream4_IRQn 0 */
 336:Core/Src/stm32f4xx_it.c ****   HAL_DMA_IRQHandler(&hdma_tim8_ch3);
 509              		.loc 1 336 3 view .LVU56
 510 0002 0248     		ldr	r0, .L56
 511 0004 FFF7FEFF 		bl	HAL_DMA_IRQHandler
 512              	.LVL11:
 337:Core/Src/stm32f4xx_it.c ****   /* USER CODE BEGIN DMA2_Stream4_IRQn 1 */
 338:Core/Src/stm32f4xx_it.c **** 
 339:Core/Src/stm32f4xx_it.c ****   /* USER CODE END DMA2_Stream4_IRQn 1 */
 340:Core/Src/stm32f4xx_it.c **** }
 513              		.loc 1 340 1 is_stmt 0 view .LVU57
 514 0008 08BD     		pop	{r3, pc}
 515              	.L57:
 516 000a 00BF     		.align	2
 517              	.L56:
 518 000c 00000000 		.word	hdma_tim8_ch3
 519              		.cfi_endproc
 520              	.LFE147:
 522              		.section	.text.OTG_FS_IRQHandler,"ax",%progbits
 523              		.align	1
 524              		.global	OTG_FS_IRQHandler
 525              		.syntax unified
 526              		.thumb
 527              		.thumb_func
 529              	OTG_FS_IRQHandler:
 530              	.LFB148:
 341:Core/Src/stm32f4xx_it.c **** 
 342:Core/Src/stm32f4xx_it.c **** /**
 343:Core/Src/stm32f4xx_it.c ****   * @brief This function handles USB On The Go FS global interrupt.
 344:Core/Src/stm32f4xx_it.c ****   */
 345:Core/Src/stm32f4xx_it.c **** void OTG_FS_IRQHandler(void)
 346:Core/Src/stm32f4xx_it.c **** {
 531              		.loc 1 346 1 is_stmt 1 view -0
 532              		.cfi_startproc
 533              		@ args = 0, pretend = 0, frame = 0
 534              		@ frame_needed = 0, uses_anonymous_args = 0
 535 0000 08B5     		push	{r3, lr}
 536              	.LCFI12:
 537              		.cfi_def_cfa_offset 8
 538              		.cfi_offset 3, -8
 539              		.cfi_offset 14, -4
 347:Core/Src/stm32f4xx_it.c ****   /* USER CODE BEGIN OTG_FS_IRQn 0 */
 348:Core/Src/stm32f4xx_it.c **** 
ARM GAS  C:\Users\zhaohe\AppData\Local\Temp\ccbz8Z52.s 			page 16


 349:Core/Src/stm32f4xx_it.c ****   /* USER CODE END OTG_FS_IRQn 0 */
 350:Core/Src/stm32f4xx_it.c ****   HAL_PCD_IRQHandler(&hpcd_USB_OTG_FS);
 540              		.loc 1 350 3 view .LVU59
 541 0002 0248     		ldr	r0, .L60
 542 0004 FFF7FEFF 		bl	HAL_PCD_IRQHandler
 543              	.LVL12:
 351:Core/Src/stm32f4xx_it.c ****   /* USER CODE BEGIN OTG_FS_IRQn 1 */
 352:Core/Src/stm32f4xx_it.c **** 
 353:Core/Src/stm32f4xx_it.c ****   /* USER CODE END OTG_FS_IRQn 1 */
 354:Core/Src/stm32f4xx_it.c **** }
 544              		.loc 1 354 1 is_stmt 0 view .LVU60
 545 0008 08BD     		pop	{r3, pc}
 546              	.L61:
 547 000a 00BF     		.align	2
 548              	.L60:
 549 000c 00000000 		.word	hpcd_USB_OTG_FS
 550              		.cfi_endproc
 551              	.LFE148:
 553              		.section	.text.DMA2_Stream7_IRQHandler,"ax",%progbits
 554              		.align	1
 555              		.global	DMA2_Stream7_IRQHandler
 556              		.syntax unified
 557              		.thumb
 558              		.thumb_func
 560              	DMA2_Stream7_IRQHandler:
 561              	.LFB149:
 355:Core/Src/stm32f4xx_it.c **** 
 356:Core/Src/stm32f4xx_it.c **** /**
 357:Core/Src/stm32f4xx_it.c ****   * @brief This function handles DMA2 stream7 global interrupt.
 358:Core/Src/stm32f4xx_it.c ****   */
 359:Core/Src/stm32f4xx_it.c **** void DMA2_Stream7_IRQHandler(void)
 360:Core/Src/stm32f4xx_it.c **** {
 562              		.loc 1 360 1 is_stmt 1 view -0
 563              		.cfi_startproc
 564              		@ args = 0, pretend = 0, frame = 0
 565              		@ frame_needed = 0, uses_anonymous_args = 0
 566 0000 08B5     		push	{r3, lr}
 567              	.LCFI13:
 568              		.cfi_def_cfa_offset 8
 569              		.cfi_offset 3, -8
 570              		.cfi_offset 14, -4
 361:Core/Src/stm32f4xx_it.c ****   /* USER CODE BEGIN DMA2_Stream7_IRQn 0 */
 362:Core/Src/stm32f4xx_it.c **** 
 363:Core/Src/stm32f4xx_it.c ****   /* USER CODE END DMA2_Stream7_IRQn 0 */
 364:Core/Src/stm32f4xx_it.c ****   HAL_DMA_IRQHandler(&hdma_tim8_ch4_trig_com);
 571              		.loc 1 364 3 view .LVU62
 572 0002 0248     		ldr	r0, .L64
 573 0004 FFF7FEFF 		bl	HAL_DMA_IRQHandler
 574              	.LVL13:
 365:Core/Src/stm32f4xx_it.c ****   /* USER CODE BEGIN DMA2_Stream7_IRQn 1 */
 366:Core/Src/stm32f4xx_it.c **** 
 367:Core/Src/stm32f4xx_it.c ****   /* USER CODE END DMA2_Stream7_IRQn 1 */
 368:Core/Src/stm32f4xx_it.c **** }
 575              		.loc 1 368 1 is_stmt 0 view .LVU63
 576 0008 08BD     		pop	{r3, pc}
 577              	.L65:
 578 000a 00BF     		.align	2
ARM GAS  C:\Users\zhaohe\AppData\Local\Temp\ccbz8Z52.s 			page 17


 579              	.L64:
 580 000c 00000000 		.word	hdma_tim8_ch4_trig_com
 581              		.cfi_endproc
 582              	.LFE149:
 584              		.text
 585              	.Letext0:
 586              		.file 2 "e:\\gcc\\2021.10\\arm-none-eabi\\include\\machine\\_default_types.h"
 587              		.file 3 "e:\\gcc\\2021.10\\arm-none-eabi\\include\\sys\\_stdint.h"
 588              		.file 4 "Drivers/CMSIS/Device/ST/STM32F4xx/Include/stm32f405xx.h"
 589              		.file 5 "Drivers/STM32F4xx_HAL_Driver/Inc/stm32f4xx_hal_def.h"
 590              		.file 6 "Drivers/STM32F4xx_HAL_Driver/Inc/stm32f4xx_hal_dma.h"
 591              		.file 7 "Drivers/STM32F4xx_HAL_Driver/Inc/stm32f4xx_hal_tim.h"
 592              		.file 8 "Drivers/STM32F4xx_HAL_Driver/Inc/stm32f4xx_hal_uart.h"
 593              		.file 9 "Drivers/STM32F4xx_HAL_Driver/Inc/stm32f4xx_ll_usb.h"
 594              		.file 10 "Drivers/STM32F4xx_HAL_Driver/Inc/stm32f4xx_hal_pcd.h"
 595              		.file 11 "Drivers/STM32F4xx_HAL_Driver/Inc/stm32f4xx_hal_gpio.h"
ARM GAS  C:\Users\zhaohe\AppData\Local\Temp\ccbz8Z52.s 			page 18

