ARM GAS  C:\Users\zhaohe\AppData\Local\Temp\ccjzgoIS.s 			page 1


   1              		.cpu cortex-m4
   2              		.arch armv7e-m
   3              		.fpu fpv4-sp-d16
   4              		.eabi_attribute 27, 1
   5              		.eabi_attribute 28, 1
   6              		.eabi_attribute 20, 1
   7              		.eabi_attribute 21, 1
   8              		.eabi_attribute 23, 3
   9              		.eabi_attribute 24, 1
  10              		.eabi_attribute 25, 1
  11              		.eabi_attribute 26, 1
  12              		.eabi_attribute 30, 1
  13              		.eabi_attribute 34, 1
  14              		.eabi_attribute 18, 4
  15              		.file	"usart.c"
  16              		.text
  17              	.Ltext0:
  18              		.cfi_sections	.debug_frame
  19              		.section	.text.MX_USART1_UART_Init,"ax",%progbits
  20              		.align	1
  21              		.global	MX_USART1_UART_Init
  22              		.syntax unified
  23              		.thumb
  24              		.thumb_func
  26              	MX_USART1_UART_Init:
  27              	.LFB130:
  28              		.file 1 "Core/Src/usart.c"
   1:Core/Src/usart.c **** /* USER CODE BEGIN Header */
   2:Core/Src/usart.c **** /**
   3:Core/Src/usart.c ****   ******************************************************************************
   4:Core/Src/usart.c ****   * @file    usart.c
   5:Core/Src/usart.c ****   * @brief   This file provides code for the configuration
   6:Core/Src/usart.c ****   *          of the USART instances.
   7:Core/Src/usart.c ****   ******************************************************************************
   8:Core/Src/usart.c ****   * @attention
   9:Core/Src/usart.c ****   *
  10:Core/Src/usart.c ****   * Copyright (c) 2022 STMicroelectronics.
  11:Core/Src/usart.c ****   * All rights reserved.
  12:Core/Src/usart.c ****   *
  13:Core/Src/usart.c ****   * This software is licensed under terms that can be found in the LICENSE file
  14:Core/Src/usart.c ****   * in the root directory of this software component.
  15:Core/Src/usart.c ****   * If no LICENSE file comes with this software, it is provided AS-IS.
  16:Core/Src/usart.c ****   *
  17:Core/Src/usart.c ****   ******************************************************************************
  18:Core/Src/usart.c ****   */
  19:Core/Src/usart.c **** /* USER CODE END Header */
  20:Core/Src/usart.c **** /* Includes ------------------------------------------------------------------*/
  21:Core/Src/usart.c **** #include "usart.h"
  22:Core/Src/usart.c **** 
  23:Core/Src/usart.c **** /* USER CODE BEGIN 0 */
  24:Core/Src/usart.c **** 
  25:Core/Src/usart.c **** /* USER CODE END 0 */
  26:Core/Src/usart.c **** 
  27:Core/Src/usart.c **** UART_HandleTypeDef huart1;
  28:Core/Src/usart.c **** UART_HandleTypeDef huart2;
  29:Core/Src/usart.c **** UART_HandleTypeDef huart3;
  30:Core/Src/usart.c **** DMA_HandleTypeDef hdma_usart2_rx;
ARM GAS  C:\Users\zhaohe\AppData\Local\Temp\ccjzgoIS.s 			page 2


  31:Core/Src/usart.c **** DMA_HandleTypeDef hdma_usart3_rx;
  32:Core/Src/usart.c **** DMA_HandleTypeDef hdma_usart3_tx;
  33:Core/Src/usart.c **** 
  34:Core/Src/usart.c **** /* USART1 init function */
  35:Core/Src/usart.c **** 
  36:Core/Src/usart.c **** void MX_USART1_UART_Init(void)
  37:Core/Src/usart.c **** {
  29              		.loc 1 37 1 view -0
  30              		.cfi_startproc
  31              		@ args = 0, pretend = 0, frame = 0
  32              		@ frame_needed = 0, uses_anonymous_args = 0
  33 0000 08B5     		push	{r3, lr}
  34              	.LCFI0:
  35              		.cfi_def_cfa_offset 8
  36              		.cfi_offset 3, -8
  37              		.cfi_offset 14, -4
  38:Core/Src/usart.c **** 
  39:Core/Src/usart.c ****   /* USER CODE BEGIN USART1_Init 0 */
  40:Core/Src/usart.c **** 
  41:Core/Src/usart.c ****   /* USER CODE END USART1_Init 0 */
  42:Core/Src/usart.c **** 
  43:Core/Src/usart.c ****   /* USER CODE BEGIN USART1_Init 1 */
  44:Core/Src/usart.c **** 
  45:Core/Src/usart.c ****   /* USER CODE END USART1_Init 1 */
  46:Core/Src/usart.c ****   huart1.Instance = USART1;
  38              		.loc 1 46 3 view .LVU1
  39              		.loc 1 46 19 is_stmt 0 view .LVU2
  40 0002 0A48     		ldr	r0, .L5
  41 0004 0A4B     		ldr	r3, .L5+4
  42 0006 0360     		str	r3, [r0]
  47:Core/Src/usart.c ****   huart1.Init.BaudRate = 921600;
  43              		.loc 1 47 3 is_stmt 1 view .LVU3
  44              		.loc 1 47 24 is_stmt 0 view .LVU4
  45 0008 4FF46123 		mov	r3, #921600
  46 000c 4360     		str	r3, [r0, #4]
  48:Core/Src/usart.c ****   huart1.Init.WordLength = UART_WORDLENGTH_8B;
  47              		.loc 1 48 3 is_stmt 1 view .LVU5
  48              		.loc 1 48 26 is_stmt 0 view .LVU6
  49 000e 0023     		movs	r3, #0
  50 0010 8360     		str	r3, [r0, #8]
  49:Core/Src/usart.c ****   huart1.Init.StopBits = UART_STOPBITS_1;
  51              		.loc 1 49 3 is_stmt 1 view .LVU7
  52              		.loc 1 49 24 is_stmt 0 view .LVU8
  53 0012 C360     		str	r3, [r0, #12]
  50:Core/Src/usart.c ****   huart1.Init.Parity = UART_PARITY_NONE;
  54              		.loc 1 50 3 is_stmt 1 view .LVU9
  55              		.loc 1 50 22 is_stmt 0 view .LVU10
  56 0014 0361     		str	r3, [r0, #16]
  51:Core/Src/usart.c ****   huart1.Init.Mode = UART_MODE_TX_RX;
  57              		.loc 1 51 3 is_stmt 1 view .LVU11
  58              		.loc 1 51 20 is_stmt 0 view .LVU12
  59 0016 0C22     		movs	r2, #12
  60 0018 4261     		str	r2, [r0, #20]
  52:Core/Src/usart.c ****   huart1.Init.HwFlowCtl = UART_HWCONTROL_NONE;
  61              		.loc 1 52 3 is_stmt 1 view .LVU13
  62              		.loc 1 52 25 is_stmt 0 view .LVU14
  63 001a 8361     		str	r3, [r0, #24]
ARM GAS  C:\Users\zhaohe\AppData\Local\Temp\ccjzgoIS.s 			page 3


  53:Core/Src/usart.c ****   huart1.Init.OverSampling = UART_OVERSAMPLING_16;
  64              		.loc 1 53 3 is_stmt 1 view .LVU15
  65              		.loc 1 53 28 is_stmt 0 view .LVU16
  66 001c C361     		str	r3, [r0, #28]
  54:Core/Src/usart.c ****   if (HAL_UART_Init(&huart1) != HAL_OK)
  67              		.loc 1 54 3 is_stmt 1 view .LVU17
  68              		.loc 1 54 7 is_stmt 0 view .LVU18
  69 001e FFF7FEFF 		bl	HAL_UART_Init
  70              	.LVL0:
  71              		.loc 1 54 6 view .LVU19
  72 0022 00B9     		cbnz	r0, .L4
  73              	.L1:
  55:Core/Src/usart.c ****   {
  56:Core/Src/usart.c ****     Error_Handler();
  57:Core/Src/usart.c ****   }
  58:Core/Src/usart.c ****   /* USER CODE BEGIN USART1_Init 2 */
  59:Core/Src/usart.c **** 
  60:Core/Src/usart.c ****   /* USER CODE END USART1_Init 2 */
  61:Core/Src/usart.c **** 
  62:Core/Src/usart.c **** }
  74              		.loc 1 62 1 view .LVU20
  75 0024 08BD     		pop	{r3, pc}
  76              	.L4:
  56:Core/Src/usart.c ****   }
  77              		.loc 1 56 5 is_stmt 1 view .LVU21
  78 0026 FFF7FEFF 		bl	Error_Handler
  79              	.LVL1:
  80              		.loc 1 62 1 is_stmt 0 view .LVU22
  81 002a FBE7     		b	.L1
  82              	.L6:
  83              		.align	2
  84              	.L5:
  85 002c 00000000 		.word	.LANCHOR0
  86 0030 00100140 		.word	1073811456
  87              		.cfi_endproc
  88              	.LFE130:
  90              		.section	.text.MX_USART2_UART_Init,"ax",%progbits
  91              		.align	1
  92              		.global	MX_USART2_UART_Init
  93              		.syntax unified
  94              		.thumb
  95              		.thumb_func
  97              	MX_USART2_UART_Init:
  98              	.LFB131:
  63:Core/Src/usart.c **** /* USART2 init function */
  64:Core/Src/usart.c **** 
  65:Core/Src/usart.c **** void MX_USART2_UART_Init(void)
  66:Core/Src/usart.c **** {
  99              		.loc 1 66 1 is_stmt 1 view -0
 100              		.cfi_startproc
 101              		@ args = 0, pretend = 0, frame = 0
 102              		@ frame_needed = 0, uses_anonymous_args = 0
 103 0000 08B5     		push	{r3, lr}
 104              	.LCFI1:
 105              		.cfi_def_cfa_offset 8
 106              		.cfi_offset 3, -8
 107              		.cfi_offset 14, -4
ARM GAS  C:\Users\zhaohe\AppData\Local\Temp\ccjzgoIS.s 			page 4


  67:Core/Src/usart.c **** 
  68:Core/Src/usart.c ****   /* USER CODE BEGIN USART2_Init 0 */
  69:Core/Src/usart.c **** 
  70:Core/Src/usart.c ****   /* USER CODE END USART2_Init 0 */
  71:Core/Src/usart.c **** 
  72:Core/Src/usart.c ****   /* USER CODE BEGIN USART2_Init 1 */
  73:Core/Src/usart.c **** 
  74:Core/Src/usart.c ****   /* USER CODE END USART2_Init 1 */
  75:Core/Src/usart.c ****   huart2.Instance = USART2;
 108              		.loc 1 75 3 view .LVU24
 109              		.loc 1 75 19 is_stmt 0 view .LVU25
 110 0002 0A48     		ldr	r0, .L11
 111 0004 0A4B     		ldr	r3, .L11+4
 112 0006 0360     		str	r3, [r0]
  76:Core/Src/usart.c ****   huart2.Init.BaudRate = 115200;
 113              		.loc 1 76 3 is_stmt 1 view .LVU26
 114              		.loc 1 76 24 is_stmt 0 view .LVU27
 115 0008 4FF4E133 		mov	r3, #115200
 116 000c 4360     		str	r3, [r0, #4]
  77:Core/Src/usart.c ****   huart2.Init.WordLength = UART_WORDLENGTH_8B;
 117              		.loc 1 77 3 is_stmt 1 view .LVU28
 118              		.loc 1 77 26 is_stmt 0 view .LVU29
 119 000e 0023     		movs	r3, #0
 120 0010 8360     		str	r3, [r0, #8]
  78:Core/Src/usart.c ****   huart2.Init.StopBits = UART_STOPBITS_1;
 121              		.loc 1 78 3 is_stmt 1 view .LVU30
 122              		.loc 1 78 24 is_stmt 0 view .LVU31
 123 0012 C360     		str	r3, [r0, #12]
  79:Core/Src/usart.c ****   huart2.Init.Parity = UART_PARITY_NONE;
 124              		.loc 1 79 3 is_stmt 1 view .LVU32
 125              		.loc 1 79 22 is_stmt 0 view .LVU33
 126 0014 0361     		str	r3, [r0, #16]
  80:Core/Src/usart.c ****   huart2.Init.Mode = UART_MODE_TX_RX;
 127              		.loc 1 80 3 is_stmt 1 view .LVU34
 128              		.loc 1 80 20 is_stmt 0 view .LVU35
 129 0016 0C22     		movs	r2, #12
 130 0018 4261     		str	r2, [r0, #20]
  81:Core/Src/usart.c ****   huart2.Init.HwFlowCtl = UART_HWCONTROL_NONE;
 131              		.loc 1 81 3 is_stmt 1 view .LVU36
 132              		.loc 1 81 25 is_stmt 0 view .LVU37
 133 001a 8361     		str	r3, [r0, #24]
  82:Core/Src/usart.c ****   huart2.Init.OverSampling = UART_OVERSAMPLING_16;
 134              		.loc 1 82 3 is_stmt 1 view .LVU38
 135              		.loc 1 82 28 is_stmt 0 view .LVU39
 136 001c C361     		str	r3, [r0, #28]
  83:Core/Src/usart.c ****   if (HAL_UART_Init(&huart2) != HAL_OK)
 137              		.loc 1 83 3 is_stmt 1 view .LVU40
 138              		.loc 1 83 7 is_stmt 0 view .LVU41
 139 001e FFF7FEFF 		bl	HAL_UART_Init
 140              	.LVL2:
 141              		.loc 1 83 6 view .LVU42
 142 0022 00B9     		cbnz	r0, .L10
 143              	.L7:
  84:Core/Src/usart.c ****   {
  85:Core/Src/usart.c ****     Error_Handler();
  86:Core/Src/usart.c ****   }
  87:Core/Src/usart.c ****   /* USER CODE BEGIN USART2_Init 2 */
ARM GAS  C:\Users\zhaohe\AppData\Local\Temp\ccjzgoIS.s 			page 5


  88:Core/Src/usart.c **** 
  89:Core/Src/usart.c ****   /* USER CODE END USART2_Init 2 */
  90:Core/Src/usart.c **** 
  91:Core/Src/usart.c **** }
 144              		.loc 1 91 1 view .LVU43
 145 0024 08BD     		pop	{r3, pc}
 146              	.L10:
  85:Core/Src/usart.c ****   }
 147              		.loc 1 85 5 is_stmt 1 view .LVU44
 148 0026 FFF7FEFF 		bl	Error_Handler
 149              	.LVL3:
 150              		.loc 1 91 1 is_stmt 0 view .LVU45
 151 002a FBE7     		b	.L7
 152              	.L12:
 153              		.align	2
 154              	.L11:
 155 002c 00000000 		.word	.LANCHOR1
 156 0030 00440040 		.word	1073759232
 157              		.cfi_endproc
 158              	.LFE131:
 160              		.section	.text.MX_USART3_UART_Init,"ax",%progbits
 161              		.align	1
 162              		.global	MX_USART3_UART_Init
 163              		.syntax unified
 164              		.thumb
 165              		.thumb_func
 167              	MX_USART3_UART_Init:
 168              	.LFB132:
  92:Core/Src/usart.c **** /* USART3 init function */
  93:Core/Src/usart.c **** 
  94:Core/Src/usart.c **** void MX_USART3_UART_Init(void)
  95:Core/Src/usart.c **** {
 169              		.loc 1 95 1 is_stmt 1 view -0
 170              		.cfi_startproc
 171              		@ args = 0, pretend = 0, frame = 0
 172              		@ frame_needed = 0, uses_anonymous_args = 0
 173 0000 08B5     		push	{r3, lr}
 174              	.LCFI2:
 175              		.cfi_def_cfa_offset 8
 176              		.cfi_offset 3, -8
 177              		.cfi_offset 14, -4
  96:Core/Src/usart.c **** 
  97:Core/Src/usart.c ****   /* USER CODE BEGIN USART3_Init 0 */
  98:Core/Src/usart.c **** 
  99:Core/Src/usart.c ****   /* USER CODE END USART3_Init 0 */
 100:Core/Src/usart.c **** 
 101:Core/Src/usart.c ****   /* USER CODE BEGIN USART3_Init 1 */
 102:Core/Src/usart.c **** 
 103:Core/Src/usart.c ****   /* USER CODE END USART3_Init 1 */
 104:Core/Src/usart.c ****   huart3.Instance = USART3;
 178              		.loc 1 104 3 view .LVU47
 179              		.loc 1 104 19 is_stmt 0 view .LVU48
 180 0002 0A48     		ldr	r0, .L17
 181 0004 0A4B     		ldr	r3, .L17+4
 182 0006 0360     		str	r3, [r0]
 105:Core/Src/usart.c ****   huart3.Init.BaudRate = 460800;
 183              		.loc 1 105 3 is_stmt 1 view .LVU49
ARM GAS  C:\Users\zhaohe\AppData\Local\Temp\ccjzgoIS.s 			page 6


 184              		.loc 1 105 24 is_stmt 0 view .LVU50
 185 0008 4FF4E123 		mov	r3, #460800
 186 000c 4360     		str	r3, [r0, #4]
 106:Core/Src/usart.c ****   huart3.Init.WordLength = UART_WORDLENGTH_8B;
 187              		.loc 1 106 3 is_stmt 1 view .LVU51
 188              		.loc 1 106 26 is_stmt 0 view .LVU52
 189 000e 0023     		movs	r3, #0
 190 0010 8360     		str	r3, [r0, #8]
 107:Core/Src/usart.c ****   huart3.Init.StopBits = UART_STOPBITS_1;
 191              		.loc 1 107 3 is_stmt 1 view .LVU53
 192              		.loc 1 107 24 is_stmt 0 view .LVU54
 193 0012 C360     		str	r3, [r0, #12]
 108:Core/Src/usart.c ****   huart3.Init.Parity = UART_PARITY_NONE;
 194              		.loc 1 108 3 is_stmt 1 view .LVU55
 195              		.loc 1 108 22 is_stmt 0 view .LVU56
 196 0014 0361     		str	r3, [r0, #16]
 109:Core/Src/usart.c ****   huart3.Init.Mode = UART_MODE_TX_RX;
 197              		.loc 1 109 3 is_stmt 1 view .LVU57
 198              		.loc 1 109 20 is_stmt 0 view .LVU58
 199 0016 0C22     		movs	r2, #12
 200 0018 4261     		str	r2, [r0, #20]
 110:Core/Src/usart.c ****   huart3.Init.HwFlowCtl = UART_HWCONTROL_NONE;
 201              		.loc 1 110 3 is_stmt 1 view .LVU59
 202              		.loc 1 110 25 is_stmt 0 view .LVU60
 203 001a 8361     		str	r3, [r0, #24]
 111:Core/Src/usart.c ****   huart3.Init.OverSampling = UART_OVERSAMPLING_16;
 204              		.loc 1 111 3 is_stmt 1 view .LVU61
 205              		.loc 1 111 28 is_stmt 0 view .LVU62
 206 001c C361     		str	r3, [r0, #28]
 112:Core/Src/usart.c ****   if (HAL_UART_Init(&huart3) != HAL_OK)
 207              		.loc 1 112 3 is_stmt 1 view .LVU63
 208              		.loc 1 112 7 is_stmt 0 view .LVU64
 209 001e FFF7FEFF 		bl	HAL_UART_Init
 210              	.LVL4:
 211              		.loc 1 112 6 view .LVU65
 212 0022 00B9     		cbnz	r0, .L16
 213              	.L13:
 113:Core/Src/usart.c ****   {
 114:Core/Src/usart.c ****     Error_Handler();
 115:Core/Src/usart.c ****   }
 116:Core/Src/usart.c ****   /* USER CODE BEGIN USART3_Init 2 */
 117:Core/Src/usart.c **** 
 118:Core/Src/usart.c ****   /* USER CODE END USART3_Init 2 */
 119:Core/Src/usart.c **** 
 120:Core/Src/usart.c **** }
 214              		.loc 1 120 1 view .LVU66
 215 0024 08BD     		pop	{r3, pc}
 216              	.L16:
 114:Core/Src/usart.c ****   }
 217              		.loc 1 114 5 is_stmt 1 view .LVU67
 218 0026 FFF7FEFF 		bl	Error_Handler
 219              	.LVL5:
 220              		.loc 1 120 1 is_stmt 0 view .LVU68
 221 002a FBE7     		b	.L13
 222              	.L18:
 223              		.align	2
 224              	.L17:
ARM GAS  C:\Users\zhaohe\AppData\Local\Temp\ccjzgoIS.s 			page 7


 225 002c 00000000 		.word	.LANCHOR2
 226 0030 00480040 		.word	1073760256
 227              		.cfi_endproc
 228              	.LFE132:
 230              		.section	.text.HAL_UART_MspInit,"ax",%progbits
 231              		.align	1
 232              		.global	HAL_UART_MspInit
 233              		.syntax unified
 234              		.thumb
 235              		.thumb_func
 237              	HAL_UART_MspInit:
 238              	.LVL6:
 239              	.LFB133:
 121:Core/Src/usart.c **** 
 122:Core/Src/usart.c **** void HAL_UART_MspInit(UART_HandleTypeDef* uartHandle)
 123:Core/Src/usart.c **** {
 240              		.loc 1 123 1 is_stmt 1 view -0
 241              		.cfi_startproc
 242              		@ args = 0, pretend = 0, frame = 48
 243              		@ frame_needed = 0, uses_anonymous_args = 0
 244              		.loc 1 123 1 is_stmt 0 view .LVU70
 245 0000 30B5     		push	{r4, r5, lr}
 246              	.LCFI3:
 247              		.cfi_def_cfa_offset 12
 248              		.cfi_offset 4, -12
 249              		.cfi_offset 5, -8
 250              		.cfi_offset 14, -4
 251 0002 8DB0     		sub	sp, sp, #52
 252              	.LCFI4:
 253              		.cfi_def_cfa_offset 64
 124:Core/Src/usart.c **** 
 125:Core/Src/usart.c ****   GPIO_InitTypeDef GPIO_InitStruct = {0};
 254              		.loc 1 125 3 is_stmt 1 view .LVU71
 255              		.loc 1 125 20 is_stmt 0 view .LVU72
 256 0004 0023     		movs	r3, #0
 257 0006 0793     		str	r3, [sp, #28]
 258 0008 0893     		str	r3, [sp, #32]
 259 000a 0993     		str	r3, [sp, #36]
 260 000c 0A93     		str	r3, [sp, #40]
 261 000e 0B93     		str	r3, [sp, #44]
 126:Core/Src/usart.c ****   if(uartHandle->Instance==USART1)
 262              		.loc 1 126 3 is_stmt 1 view .LVU73
 263              		.loc 1 126 16 is_stmt 0 view .LVU74
 264 0010 0368     		ldr	r3, [r0]
 265              		.loc 1 126 5 view .LVU75
 266 0012 6B4A     		ldr	r2, .L33
 267 0014 9342     		cmp	r3, r2
 268 0016 08D0     		beq	.L27
 269 0018 0446     		mov	r4, r0
 127:Core/Src/usart.c ****   {
 128:Core/Src/usart.c ****   /* USER CODE BEGIN USART1_MspInit 0 */
 129:Core/Src/usart.c **** 
 130:Core/Src/usart.c ****   /* USER CODE END USART1_MspInit 0 */
 131:Core/Src/usart.c ****     /* USART1 clock enable */
 132:Core/Src/usart.c ****     __HAL_RCC_USART1_CLK_ENABLE();
 133:Core/Src/usart.c **** 
 134:Core/Src/usart.c ****     __HAL_RCC_GPIOA_CLK_ENABLE();
ARM GAS  C:\Users\zhaohe\AppData\Local\Temp\ccjzgoIS.s 			page 8


 135:Core/Src/usart.c ****     /**USART1 GPIO Configuration
 136:Core/Src/usart.c ****     PA9     ------> USART1_TX
 137:Core/Src/usart.c ****     PA10     ------> USART1_RX
 138:Core/Src/usart.c ****     */
 139:Core/Src/usart.c ****     GPIO_InitStruct.Pin = GPIO_PIN_9|GPIO_PIN_10;
 140:Core/Src/usart.c ****     GPIO_InitStruct.Mode = GPIO_MODE_AF_PP;
 141:Core/Src/usart.c ****     GPIO_InitStruct.Pull = GPIO_NOPULL;
 142:Core/Src/usart.c ****     GPIO_InitStruct.Speed = GPIO_SPEED_FREQ_VERY_HIGH;
 143:Core/Src/usart.c ****     GPIO_InitStruct.Alternate = GPIO_AF7_USART1;
 144:Core/Src/usart.c ****     HAL_GPIO_Init(GPIOA, &GPIO_InitStruct);
 145:Core/Src/usart.c **** 
 146:Core/Src/usart.c ****     /* USART1 interrupt Init */
 147:Core/Src/usart.c ****     HAL_NVIC_SetPriority(USART1_IRQn, 5, 0);
 148:Core/Src/usart.c ****     HAL_NVIC_EnableIRQ(USART1_IRQn);
 149:Core/Src/usart.c ****   /* USER CODE BEGIN USART1_MspInit 1 */
 150:Core/Src/usart.c **** 
 151:Core/Src/usart.c ****   /* USER CODE END USART1_MspInit 1 */
 152:Core/Src/usart.c ****   }
 153:Core/Src/usart.c ****   else if(uartHandle->Instance==USART2)
 270              		.loc 1 153 8 is_stmt 1 view .LVU76
 271              		.loc 1 153 10 is_stmt 0 view .LVU77
 272 001a 6A4A     		ldr	r2, .L33+4
 273 001c 9342     		cmp	r3, r2
 274 001e 30D0     		beq	.L28
 154:Core/Src/usart.c ****   {
 155:Core/Src/usart.c ****   /* USER CODE BEGIN USART2_MspInit 0 */
 156:Core/Src/usart.c **** 
 157:Core/Src/usart.c ****   /* USER CODE END USART2_MspInit 0 */
 158:Core/Src/usart.c ****     /* USART2 clock enable */
 159:Core/Src/usart.c ****     __HAL_RCC_USART2_CLK_ENABLE();
 160:Core/Src/usart.c **** 
 161:Core/Src/usart.c ****     __HAL_RCC_GPIOA_CLK_ENABLE();
 162:Core/Src/usart.c ****     /**USART2 GPIO Configuration
 163:Core/Src/usart.c ****     PA2     ------> USART2_TX
 164:Core/Src/usart.c ****     PA3     ------> USART2_RX
 165:Core/Src/usart.c ****     */
 166:Core/Src/usart.c ****     GPIO_InitStruct.Pin = GPIO_PIN_2|GPIO_PIN_3;
 167:Core/Src/usart.c ****     GPIO_InitStruct.Mode = GPIO_MODE_AF_PP;
 168:Core/Src/usart.c ****     GPIO_InitStruct.Pull = GPIO_PULLUP;
 169:Core/Src/usart.c ****     GPIO_InitStruct.Speed = GPIO_SPEED_FREQ_HIGH;
 170:Core/Src/usart.c ****     GPIO_InitStruct.Alternate = GPIO_AF7_USART2;
 171:Core/Src/usart.c ****     HAL_GPIO_Init(GPIOA, &GPIO_InitStruct);
 172:Core/Src/usart.c **** 
 173:Core/Src/usart.c ****     /* USART2 DMA Init */
 174:Core/Src/usart.c ****     /* USART2_RX Init */
 175:Core/Src/usart.c ****     hdma_usart2_rx.Instance = DMA1_Stream5;
 176:Core/Src/usart.c ****     hdma_usart2_rx.Init.Channel = DMA_CHANNEL_4;
 177:Core/Src/usart.c ****     hdma_usart2_rx.Init.Direction = DMA_PERIPH_TO_MEMORY;
 178:Core/Src/usart.c ****     hdma_usart2_rx.Init.PeriphInc = DMA_PINC_DISABLE;
 179:Core/Src/usart.c ****     hdma_usart2_rx.Init.MemInc = DMA_MINC_ENABLE;
 180:Core/Src/usart.c ****     hdma_usart2_rx.Init.PeriphDataAlignment = DMA_PDATAALIGN_BYTE;
 181:Core/Src/usart.c ****     hdma_usart2_rx.Init.MemDataAlignment = DMA_MDATAALIGN_BYTE;
 182:Core/Src/usart.c ****     hdma_usart2_rx.Init.Mode = DMA_CIRCULAR;
 183:Core/Src/usart.c ****     hdma_usart2_rx.Init.Priority = DMA_PRIORITY_HIGH;
 184:Core/Src/usart.c ****     hdma_usart2_rx.Init.FIFOMode = DMA_FIFOMODE_DISABLE;
 185:Core/Src/usart.c ****     if (HAL_DMA_Init(&hdma_usart2_rx) != HAL_OK)
 186:Core/Src/usart.c ****     {
ARM GAS  C:\Users\zhaohe\AppData\Local\Temp\ccjzgoIS.s 			page 9


 187:Core/Src/usart.c ****       Error_Handler();
 188:Core/Src/usart.c ****     }
 189:Core/Src/usart.c **** 
 190:Core/Src/usart.c ****     __HAL_LINKDMA(uartHandle,hdmarx,hdma_usart2_rx);
 191:Core/Src/usart.c **** 
 192:Core/Src/usart.c ****   /* USER CODE BEGIN USART2_MspInit 1 */
 193:Core/Src/usart.c **** 
 194:Core/Src/usart.c ****   /* USER CODE END USART2_MspInit 1 */
 195:Core/Src/usart.c ****   }
 196:Core/Src/usart.c ****   else if(uartHandle->Instance==USART3)
 275              		.loc 1 196 8 is_stmt 1 view .LVU78
 276              		.loc 1 196 10 is_stmt 0 view .LVU79
 277 0020 694A     		ldr	r2, .L33+8
 278 0022 9342     		cmp	r3, r2
 279 0024 6ED0     		beq	.L29
 280              	.LVL7:
 281              	.L19:
 197:Core/Src/usart.c ****   {
 198:Core/Src/usart.c ****   /* USER CODE BEGIN USART3_MspInit 0 */
 199:Core/Src/usart.c **** 
 200:Core/Src/usart.c ****   /* USER CODE END USART3_MspInit 0 */
 201:Core/Src/usart.c ****     /* USART3 clock enable */
 202:Core/Src/usart.c ****     __HAL_RCC_USART3_CLK_ENABLE();
 203:Core/Src/usart.c **** 
 204:Core/Src/usart.c ****     __HAL_RCC_GPIOC_CLK_ENABLE();
 205:Core/Src/usart.c ****     /**USART3 GPIO Configuration
 206:Core/Src/usart.c ****     PC10     ------> USART3_TX
 207:Core/Src/usart.c ****     PC11     ------> USART3_RX
 208:Core/Src/usart.c ****     */
 209:Core/Src/usart.c ****     GPIO_InitStruct.Pin = GPIO_PIN_10|GPIO_PIN_11;
 210:Core/Src/usart.c ****     GPIO_InitStruct.Mode = GPIO_MODE_AF_PP;
 211:Core/Src/usart.c ****     GPIO_InitStruct.Pull = GPIO_PULLUP;
 212:Core/Src/usart.c ****     GPIO_InitStruct.Speed = GPIO_SPEED_FREQ_VERY_HIGH;
 213:Core/Src/usart.c ****     GPIO_InitStruct.Alternate = GPIO_AF7_USART3;
 214:Core/Src/usart.c ****     HAL_GPIO_Init(GPIOC, &GPIO_InitStruct);
 215:Core/Src/usart.c **** 
 216:Core/Src/usart.c ****     /* USART3 DMA Init */
 217:Core/Src/usart.c ****     /* USART3_RX Init */
 218:Core/Src/usart.c ****     hdma_usart3_rx.Instance = DMA1_Stream1;
 219:Core/Src/usart.c ****     hdma_usart3_rx.Init.Channel = DMA_CHANNEL_4;
 220:Core/Src/usart.c ****     hdma_usart3_rx.Init.Direction = DMA_PERIPH_TO_MEMORY;
 221:Core/Src/usart.c ****     hdma_usart3_rx.Init.PeriphInc = DMA_PINC_DISABLE;
 222:Core/Src/usart.c ****     hdma_usart3_rx.Init.MemInc = DMA_MINC_ENABLE;
 223:Core/Src/usart.c ****     hdma_usart3_rx.Init.PeriphDataAlignment = DMA_PDATAALIGN_BYTE;
 224:Core/Src/usart.c ****     hdma_usart3_rx.Init.MemDataAlignment = DMA_MDATAALIGN_BYTE;
 225:Core/Src/usart.c ****     hdma_usart3_rx.Init.Mode = DMA_NORMAL;
 226:Core/Src/usart.c ****     hdma_usart3_rx.Init.Priority = DMA_PRIORITY_HIGH;
 227:Core/Src/usart.c ****     hdma_usart3_rx.Init.FIFOMode = DMA_FIFOMODE_DISABLE;
 228:Core/Src/usart.c ****     if (HAL_DMA_Init(&hdma_usart3_rx) != HAL_OK)
 229:Core/Src/usart.c ****     {
 230:Core/Src/usart.c ****       Error_Handler();
 231:Core/Src/usart.c ****     }
 232:Core/Src/usart.c **** 
 233:Core/Src/usart.c ****     __HAL_LINKDMA(uartHandle,hdmarx,hdma_usart3_rx);
 234:Core/Src/usart.c **** 
 235:Core/Src/usart.c ****     /* USART3_TX Init */
 236:Core/Src/usart.c ****     hdma_usart3_tx.Instance = DMA1_Stream3;
ARM GAS  C:\Users\zhaohe\AppData\Local\Temp\ccjzgoIS.s 			page 10


 237:Core/Src/usart.c ****     hdma_usart3_tx.Init.Channel = DMA_CHANNEL_4;
 238:Core/Src/usart.c ****     hdma_usart3_tx.Init.Direction = DMA_MEMORY_TO_PERIPH;
 239:Core/Src/usart.c ****     hdma_usart3_tx.Init.PeriphInc = DMA_PINC_DISABLE;
 240:Core/Src/usart.c ****     hdma_usart3_tx.Init.MemInc = DMA_MINC_ENABLE;
 241:Core/Src/usart.c ****     hdma_usart3_tx.Init.PeriphDataAlignment = DMA_PDATAALIGN_BYTE;
 242:Core/Src/usart.c ****     hdma_usart3_tx.Init.MemDataAlignment = DMA_MDATAALIGN_BYTE;
 243:Core/Src/usart.c ****     hdma_usart3_tx.Init.Mode = DMA_NORMAL;
 244:Core/Src/usart.c ****     hdma_usart3_tx.Init.Priority = DMA_PRIORITY_HIGH;
 245:Core/Src/usart.c ****     hdma_usart3_tx.Init.FIFOMode = DMA_FIFOMODE_DISABLE;
 246:Core/Src/usart.c ****     if (HAL_DMA_Init(&hdma_usart3_tx) != HAL_OK)
 247:Core/Src/usart.c ****     {
 248:Core/Src/usart.c ****       Error_Handler();
 249:Core/Src/usart.c ****     }
 250:Core/Src/usart.c **** 
 251:Core/Src/usart.c ****     __HAL_LINKDMA(uartHandle,hdmatx,hdma_usart3_tx);
 252:Core/Src/usart.c **** 
 253:Core/Src/usart.c ****   /* USER CODE BEGIN USART3_MspInit 1 */
 254:Core/Src/usart.c **** 
 255:Core/Src/usart.c ****   /* USER CODE END USART3_MspInit 1 */
 256:Core/Src/usart.c ****   }
 257:Core/Src/usart.c **** }
 282              		.loc 1 257 1 view .LVU80
 283 0026 0DB0     		add	sp, sp, #52
 284              	.LCFI5:
 285              		.cfi_remember_state
 286              		.cfi_def_cfa_offset 12
 287              		@ sp needed
 288 0028 30BD     		pop	{r4, r5, pc}
 289              	.LVL8:
 290              	.L27:
 291              	.LCFI6:
 292              		.cfi_restore_state
 132:Core/Src/usart.c **** 
 293              		.loc 1 132 5 is_stmt 1 view .LVU81
 294              	.LBB2:
 132:Core/Src/usart.c **** 
 295              		.loc 1 132 5 view .LVU82
 296 002a 0024     		movs	r4, #0
 297 002c 0194     		str	r4, [sp, #4]
 132:Core/Src/usart.c **** 
 298              		.loc 1 132 5 view .LVU83
 299 002e 674B     		ldr	r3, .L33+12
 300 0030 5A6C     		ldr	r2, [r3, #68]
 301 0032 42F01002 		orr	r2, r2, #16
 302 0036 5A64     		str	r2, [r3, #68]
 132:Core/Src/usart.c **** 
 303              		.loc 1 132 5 view .LVU84
 304 0038 5A6C     		ldr	r2, [r3, #68]
 305 003a 02F01002 		and	r2, r2, #16
 306 003e 0192     		str	r2, [sp, #4]
 132:Core/Src/usart.c **** 
 307              		.loc 1 132 5 view .LVU85
 308 0040 019A     		ldr	r2, [sp, #4]
 309              	.LBE2:
 132:Core/Src/usart.c **** 
 310              		.loc 1 132 5 view .LVU86
 134:Core/Src/usart.c ****     /**USART1 GPIO Configuration
ARM GAS  C:\Users\zhaohe\AppData\Local\Temp\ccjzgoIS.s 			page 11


 311              		.loc 1 134 5 view .LVU87
 312              	.LBB3:
 134:Core/Src/usart.c ****     /**USART1 GPIO Configuration
 313              		.loc 1 134 5 view .LVU88
 314 0042 0294     		str	r4, [sp, #8]
 134:Core/Src/usart.c ****     /**USART1 GPIO Configuration
 315              		.loc 1 134 5 view .LVU89
 316 0044 1A6B     		ldr	r2, [r3, #48]
 317 0046 42F00102 		orr	r2, r2, #1
 318 004a 1A63     		str	r2, [r3, #48]
 134:Core/Src/usart.c ****     /**USART1 GPIO Configuration
 319              		.loc 1 134 5 view .LVU90
 320 004c 1B6B     		ldr	r3, [r3, #48]
 321 004e 03F00103 		and	r3, r3, #1
 322 0052 0293     		str	r3, [sp, #8]
 134:Core/Src/usart.c ****     /**USART1 GPIO Configuration
 323              		.loc 1 134 5 view .LVU91
 324 0054 029B     		ldr	r3, [sp, #8]
 325              	.LBE3:
 134:Core/Src/usart.c ****     /**USART1 GPIO Configuration
 326              		.loc 1 134 5 view .LVU92
 139:Core/Src/usart.c ****     GPIO_InitStruct.Mode = GPIO_MODE_AF_PP;
 327              		.loc 1 139 5 view .LVU93
 139:Core/Src/usart.c ****     GPIO_InitStruct.Mode = GPIO_MODE_AF_PP;
 328              		.loc 1 139 25 is_stmt 0 view .LVU94
 329 0056 4FF4C063 		mov	r3, #1536
 330 005a 0793     		str	r3, [sp, #28]
 140:Core/Src/usart.c ****     GPIO_InitStruct.Pull = GPIO_NOPULL;
 331              		.loc 1 140 5 is_stmt 1 view .LVU95
 140:Core/Src/usart.c ****     GPIO_InitStruct.Pull = GPIO_NOPULL;
 332              		.loc 1 140 26 is_stmt 0 view .LVU96
 333 005c 0223     		movs	r3, #2
 334 005e 0893     		str	r3, [sp, #32]
 141:Core/Src/usart.c ****     GPIO_InitStruct.Speed = GPIO_SPEED_FREQ_VERY_HIGH;
 335              		.loc 1 141 5 is_stmt 1 view .LVU97
 142:Core/Src/usart.c ****     GPIO_InitStruct.Alternate = GPIO_AF7_USART1;
 336              		.loc 1 142 5 view .LVU98
 142:Core/Src/usart.c ****     GPIO_InitStruct.Alternate = GPIO_AF7_USART1;
 337              		.loc 1 142 27 is_stmt 0 view .LVU99
 338 0060 0323     		movs	r3, #3
 339 0062 0A93     		str	r3, [sp, #40]
 143:Core/Src/usart.c ****     HAL_GPIO_Init(GPIOA, &GPIO_InitStruct);
 340              		.loc 1 143 5 is_stmt 1 view .LVU100
 143:Core/Src/usart.c ****     HAL_GPIO_Init(GPIOA, &GPIO_InitStruct);
 341              		.loc 1 143 31 is_stmt 0 view .LVU101
 342 0064 0723     		movs	r3, #7
 343 0066 0B93     		str	r3, [sp, #44]
 144:Core/Src/usart.c **** 
 344              		.loc 1 144 5 is_stmt 1 view .LVU102
 345 0068 07A9     		add	r1, sp, #28
 346 006a 5948     		ldr	r0, .L33+16
 347              	.LVL9:
 144:Core/Src/usart.c **** 
 348              		.loc 1 144 5 is_stmt 0 view .LVU103
 349 006c FFF7FEFF 		bl	HAL_GPIO_Init
 350              	.LVL10:
 147:Core/Src/usart.c ****     HAL_NVIC_EnableIRQ(USART1_IRQn);
ARM GAS  C:\Users\zhaohe\AppData\Local\Temp\ccjzgoIS.s 			page 12


 351              		.loc 1 147 5 is_stmt 1 view .LVU104
 352 0070 2246     		mov	r2, r4
 353 0072 0521     		movs	r1, #5
 354 0074 2520     		movs	r0, #37
 355 0076 FFF7FEFF 		bl	HAL_NVIC_SetPriority
 356              	.LVL11:
 148:Core/Src/usart.c ****   /* USER CODE BEGIN USART1_MspInit 1 */
 357              		.loc 1 148 5 view .LVU105
 358 007a 2520     		movs	r0, #37
 359 007c FFF7FEFF 		bl	HAL_NVIC_EnableIRQ
 360              	.LVL12:
 361 0080 D1E7     		b	.L19
 362              	.LVL13:
 363              	.L28:
 159:Core/Src/usart.c **** 
 364              		.loc 1 159 5 view .LVU106
 365              	.LBB4:
 159:Core/Src/usart.c **** 
 366              		.loc 1 159 5 view .LVU107
 367 0082 0025     		movs	r5, #0
 368 0084 0395     		str	r5, [sp, #12]
 159:Core/Src/usart.c **** 
 369              		.loc 1 159 5 view .LVU108
 370 0086 514B     		ldr	r3, .L33+12
 371 0088 1A6C     		ldr	r2, [r3, #64]
 372 008a 42F40032 		orr	r2, r2, #131072
 373 008e 1A64     		str	r2, [r3, #64]
 159:Core/Src/usart.c **** 
 374              		.loc 1 159 5 view .LVU109
 375 0090 1A6C     		ldr	r2, [r3, #64]
 376 0092 02F40032 		and	r2, r2, #131072
 377 0096 0392     		str	r2, [sp, #12]
 159:Core/Src/usart.c **** 
 378              		.loc 1 159 5 view .LVU110
 379 0098 039A     		ldr	r2, [sp, #12]
 380              	.LBE4:
 159:Core/Src/usart.c **** 
 381              		.loc 1 159 5 view .LVU111
 161:Core/Src/usart.c ****     /**USART2 GPIO Configuration
 382              		.loc 1 161 5 view .LVU112
 383              	.LBB5:
 161:Core/Src/usart.c ****     /**USART2 GPIO Configuration
 384              		.loc 1 161 5 view .LVU113
 385 009a 0495     		str	r5, [sp, #16]
 161:Core/Src/usart.c ****     /**USART2 GPIO Configuration
 386              		.loc 1 161 5 view .LVU114
 387 009c 1A6B     		ldr	r2, [r3, #48]
 388 009e 42F00102 		orr	r2, r2, #1
 389 00a2 1A63     		str	r2, [r3, #48]
 161:Core/Src/usart.c ****     /**USART2 GPIO Configuration
 390              		.loc 1 161 5 view .LVU115
 391 00a4 1B6B     		ldr	r3, [r3, #48]
 392 00a6 03F00103 		and	r3, r3, #1
 393 00aa 0493     		str	r3, [sp, #16]
 161:Core/Src/usart.c ****     /**USART2 GPIO Configuration
 394              		.loc 1 161 5 view .LVU116
 395 00ac 049B     		ldr	r3, [sp, #16]
ARM GAS  C:\Users\zhaohe\AppData\Local\Temp\ccjzgoIS.s 			page 13


 396              	.LBE5:
 161:Core/Src/usart.c ****     /**USART2 GPIO Configuration
 397              		.loc 1 161 5 view .LVU117
 166:Core/Src/usart.c ****     GPIO_InitStruct.Mode = GPIO_MODE_AF_PP;
 398              		.loc 1 166 5 view .LVU118
 166:Core/Src/usart.c ****     GPIO_InitStruct.Mode = GPIO_MODE_AF_PP;
 399              		.loc 1 166 25 is_stmt 0 view .LVU119
 400 00ae 0C23     		movs	r3, #12
 401 00b0 0793     		str	r3, [sp, #28]
 167:Core/Src/usart.c ****     GPIO_InitStruct.Pull = GPIO_PULLUP;
 402              		.loc 1 167 5 is_stmt 1 view .LVU120
 167:Core/Src/usart.c ****     GPIO_InitStruct.Pull = GPIO_PULLUP;
 403              		.loc 1 167 26 is_stmt 0 view .LVU121
 404 00b2 0223     		movs	r3, #2
 405 00b4 0893     		str	r3, [sp, #32]
 168:Core/Src/usart.c ****     GPIO_InitStruct.Speed = GPIO_SPEED_FREQ_HIGH;
 406              		.loc 1 168 5 is_stmt 1 view .LVU122
 168:Core/Src/usart.c ****     GPIO_InitStruct.Speed = GPIO_SPEED_FREQ_HIGH;
 407              		.loc 1 168 26 is_stmt 0 view .LVU123
 408 00b6 0122     		movs	r2, #1
 409 00b8 0992     		str	r2, [sp, #36]
 169:Core/Src/usart.c ****     GPIO_InitStruct.Alternate = GPIO_AF7_USART2;
 410              		.loc 1 169 5 is_stmt 1 view .LVU124
 169:Core/Src/usart.c ****     GPIO_InitStruct.Alternate = GPIO_AF7_USART2;
 411              		.loc 1 169 27 is_stmt 0 view .LVU125
 412 00ba 0A93     		str	r3, [sp, #40]
 170:Core/Src/usart.c ****     HAL_GPIO_Init(GPIOA, &GPIO_InitStruct);
 413              		.loc 1 170 5 is_stmt 1 view .LVU126
 170:Core/Src/usart.c ****     HAL_GPIO_Init(GPIOA, &GPIO_InitStruct);
 414              		.loc 1 170 31 is_stmt 0 view .LVU127
 415 00bc 0723     		movs	r3, #7
 416 00be 0B93     		str	r3, [sp, #44]
 171:Core/Src/usart.c **** 
 417              		.loc 1 171 5 is_stmt 1 view .LVU128
 418 00c0 07A9     		add	r1, sp, #28
 419 00c2 4348     		ldr	r0, .L33+16
 420              	.LVL14:
 171:Core/Src/usart.c **** 
 421              		.loc 1 171 5 is_stmt 0 view .LVU129
 422 00c4 FFF7FEFF 		bl	HAL_GPIO_Init
 423              	.LVL15:
 175:Core/Src/usart.c ****     hdma_usart2_rx.Init.Channel = DMA_CHANNEL_4;
 424              		.loc 1 175 5 is_stmt 1 view .LVU130
 175:Core/Src/usart.c ****     hdma_usart2_rx.Init.Channel = DMA_CHANNEL_4;
 425              		.loc 1 175 29 is_stmt 0 view .LVU131
 426 00c8 4248     		ldr	r0, .L33+20
 427 00ca 434B     		ldr	r3, .L33+24
 428 00cc 0360     		str	r3, [r0]
 176:Core/Src/usart.c ****     hdma_usart2_rx.Init.Direction = DMA_PERIPH_TO_MEMORY;
 429              		.loc 1 176 5 is_stmt 1 view .LVU132
 176:Core/Src/usart.c ****     hdma_usart2_rx.Init.Direction = DMA_PERIPH_TO_MEMORY;
 430              		.loc 1 176 33 is_stmt 0 view .LVU133
 431 00ce 4FF00063 		mov	r3, #134217728
 432 00d2 4360     		str	r3, [r0, #4]
 177:Core/Src/usart.c ****     hdma_usart2_rx.Init.PeriphInc = DMA_PINC_DISABLE;
 433              		.loc 1 177 5 is_stmt 1 view .LVU134
 177:Core/Src/usart.c ****     hdma_usart2_rx.Init.PeriphInc = DMA_PINC_DISABLE;
ARM GAS  C:\Users\zhaohe\AppData\Local\Temp\ccjzgoIS.s 			page 14


 434              		.loc 1 177 35 is_stmt 0 view .LVU135
 435 00d4 8560     		str	r5, [r0, #8]
 178:Core/Src/usart.c ****     hdma_usart2_rx.Init.MemInc = DMA_MINC_ENABLE;
 436              		.loc 1 178 5 is_stmt 1 view .LVU136
 178:Core/Src/usart.c ****     hdma_usart2_rx.Init.MemInc = DMA_MINC_ENABLE;
 437              		.loc 1 178 35 is_stmt 0 view .LVU137
 438 00d6 C560     		str	r5, [r0, #12]
 179:Core/Src/usart.c ****     hdma_usart2_rx.Init.PeriphDataAlignment = DMA_PDATAALIGN_BYTE;
 439              		.loc 1 179 5 is_stmt 1 view .LVU138
 179:Core/Src/usart.c ****     hdma_usart2_rx.Init.PeriphDataAlignment = DMA_PDATAALIGN_BYTE;
 440              		.loc 1 179 32 is_stmt 0 view .LVU139
 441 00d8 4FF48063 		mov	r3, #1024
 442 00dc 0361     		str	r3, [r0, #16]
 180:Core/Src/usart.c ****     hdma_usart2_rx.Init.MemDataAlignment = DMA_MDATAALIGN_BYTE;
 443              		.loc 1 180 5 is_stmt 1 view .LVU140
 180:Core/Src/usart.c ****     hdma_usart2_rx.Init.MemDataAlignment = DMA_MDATAALIGN_BYTE;
 444              		.loc 1 180 45 is_stmt 0 view .LVU141
 445 00de 4561     		str	r5, [r0, #20]
 181:Core/Src/usart.c ****     hdma_usart2_rx.Init.Mode = DMA_CIRCULAR;
 446              		.loc 1 181 5 is_stmt 1 view .LVU142
 181:Core/Src/usart.c ****     hdma_usart2_rx.Init.Mode = DMA_CIRCULAR;
 447              		.loc 1 181 42 is_stmt 0 view .LVU143
 448 00e0 8561     		str	r5, [r0, #24]
 182:Core/Src/usart.c ****     hdma_usart2_rx.Init.Priority = DMA_PRIORITY_HIGH;
 449              		.loc 1 182 5 is_stmt 1 view .LVU144
 182:Core/Src/usart.c ****     hdma_usart2_rx.Init.Priority = DMA_PRIORITY_HIGH;
 450              		.loc 1 182 30 is_stmt 0 view .LVU145
 451 00e2 4FF48073 		mov	r3, #256
 452 00e6 C361     		str	r3, [r0, #28]
 183:Core/Src/usart.c ****     hdma_usart2_rx.Init.FIFOMode = DMA_FIFOMODE_DISABLE;
 453              		.loc 1 183 5 is_stmt 1 view .LVU146
 183:Core/Src/usart.c ****     hdma_usart2_rx.Init.FIFOMode = DMA_FIFOMODE_DISABLE;
 454              		.loc 1 183 34 is_stmt 0 view .LVU147
 455 00e8 4FF40033 		mov	r3, #131072
 456 00ec 0362     		str	r3, [r0, #32]
 184:Core/Src/usart.c ****     if (HAL_DMA_Init(&hdma_usart2_rx) != HAL_OK)
 457              		.loc 1 184 5 is_stmt 1 view .LVU148
 184:Core/Src/usart.c ****     if (HAL_DMA_Init(&hdma_usart2_rx) != HAL_OK)
 458              		.loc 1 184 34 is_stmt 0 view .LVU149
 459 00ee 4562     		str	r5, [r0, #36]
 185:Core/Src/usart.c ****     {
 460              		.loc 1 185 5 is_stmt 1 view .LVU150
 185:Core/Src/usart.c ****     {
 461              		.loc 1 185 9 is_stmt 0 view .LVU151
 462 00f0 FFF7FEFF 		bl	HAL_DMA_Init
 463              	.LVL16:
 185:Core/Src/usart.c ****     {
 464              		.loc 1 185 8 view .LVU152
 465 00f4 18B9     		cbnz	r0, .L30
 466              	.L23:
 190:Core/Src/usart.c **** 
 467              		.loc 1 190 5 is_stmt 1 view .LVU153
 190:Core/Src/usart.c **** 
 468              		.loc 1 190 5 view .LVU154
 469 00f6 374B     		ldr	r3, .L33+20
 470 00f8 A363     		str	r3, [r4, #56]
 190:Core/Src/usart.c **** 
ARM GAS  C:\Users\zhaohe\AppData\Local\Temp\ccjzgoIS.s 			page 15


 471              		.loc 1 190 5 view .LVU155
 472 00fa 9C63     		str	r4, [r3, #56]
 190:Core/Src/usart.c **** 
 473              		.loc 1 190 5 view .LVU156
 474 00fc 93E7     		b	.L19
 475              	.L30:
 187:Core/Src/usart.c ****     }
 476              		.loc 1 187 7 view .LVU157
 477 00fe FFF7FEFF 		bl	Error_Handler
 478              	.LVL17:
 479 0102 F8E7     		b	.L23
 480              	.LVL18:
 481              	.L29:
 202:Core/Src/usart.c **** 
 482              		.loc 1 202 5 view .LVU158
 483              	.LBB6:
 202:Core/Src/usart.c **** 
 484              		.loc 1 202 5 view .LVU159
 485 0104 0025     		movs	r5, #0
 486 0106 0595     		str	r5, [sp, #20]
 202:Core/Src/usart.c **** 
 487              		.loc 1 202 5 view .LVU160
 488 0108 304B     		ldr	r3, .L33+12
 489 010a 1A6C     		ldr	r2, [r3, #64]
 490 010c 42F48022 		orr	r2, r2, #262144
 491 0110 1A64     		str	r2, [r3, #64]
 202:Core/Src/usart.c **** 
 492              		.loc 1 202 5 view .LVU161
 493 0112 1A6C     		ldr	r2, [r3, #64]
 494 0114 02F48022 		and	r2, r2, #262144
 495 0118 0592     		str	r2, [sp, #20]
 202:Core/Src/usart.c **** 
 496              		.loc 1 202 5 view .LVU162
 497 011a 059A     		ldr	r2, [sp, #20]
 498              	.LBE6:
 202:Core/Src/usart.c **** 
 499              		.loc 1 202 5 view .LVU163
 204:Core/Src/usart.c ****     /**USART3 GPIO Configuration
 500              		.loc 1 204 5 view .LVU164
 501              	.LBB7:
 204:Core/Src/usart.c ****     /**USART3 GPIO Configuration
 502              		.loc 1 204 5 view .LVU165
 503 011c 0695     		str	r5, [sp, #24]
 204:Core/Src/usart.c ****     /**USART3 GPIO Configuration
 504              		.loc 1 204 5 view .LVU166
 505 011e 1A6B     		ldr	r2, [r3, #48]
 506 0120 42F00402 		orr	r2, r2, #4
 507 0124 1A63     		str	r2, [r3, #48]
 204:Core/Src/usart.c ****     /**USART3 GPIO Configuration
 508              		.loc 1 204 5 view .LVU167
 509 0126 1B6B     		ldr	r3, [r3, #48]
 510 0128 03F00403 		and	r3, r3, #4
 511 012c 0693     		str	r3, [sp, #24]
 204:Core/Src/usart.c ****     /**USART3 GPIO Configuration
 512              		.loc 1 204 5 view .LVU168
 513 012e 069B     		ldr	r3, [sp, #24]
 514              	.LBE7:
ARM GAS  C:\Users\zhaohe\AppData\Local\Temp\ccjzgoIS.s 			page 16


 204:Core/Src/usart.c ****     /**USART3 GPIO Configuration
 515              		.loc 1 204 5 view .LVU169
 209:Core/Src/usart.c ****     GPIO_InitStruct.Mode = GPIO_MODE_AF_PP;
 516              		.loc 1 209 5 view .LVU170
 209:Core/Src/usart.c ****     GPIO_InitStruct.Mode = GPIO_MODE_AF_PP;
 517              		.loc 1 209 25 is_stmt 0 view .LVU171
 518 0130 4FF44063 		mov	r3, #3072
 519 0134 0793     		str	r3, [sp, #28]
 210:Core/Src/usart.c ****     GPIO_InitStruct.Pull = GPIO_PULLUP;
 520              		.loc 1 210 5 is_stmt 1 view .LVU172
 210:Core/Src/usart.c ****     GPIO_InitStruct.Pull = GPIO_PULLUP;
 521              		.loc 1 210 26 is_stmt 0 view .LVU173
 522 0136 0223     		movs	r3, #2
 523 0138 0893     		str	r3, [sp, #32]
 211:Core/Src/usart.c ****     GPIO_InitStruct.Speed = GPIO_SPEED_FREQ_VERY_HIGH;
 524              		.loc 1 211 5 is_stmt 1 view .LVU174
 211:Core/Src/usart.c ****     GPIO_InitStruct.Speed = GPIO_SPEED_FREQ_VERY_HIGH;
 525              		.loc 1 211 26 is_stmt 0 view .LVU175
 526 013a 0123     		movs	r3, #1
 527 013c 0993     		str	r3, [sp, #36]
 212:Core/Src/usart.c ****     GPIO_InitStruct.Alternate = GPIO_AF7_USART3;
 528              		.loc 1 212 5 is_stmt 1 view .LVU176
 212:Core/Src/usart.c ****     GPIO_InitStruct.Alternate = GPIO_AF7_USART3;
 529              		.loc 1 212 27 is_stmt 0 view .LVU177
 530 013e 0323     		movs	r3, #3
 531 0140 0A93     		str	r3, [sp, #40]
 213:Core/Src/usart.c ****     HAL_GPIO_Init(GPIOC, &GPIO_InitStruct);
 532              		.loc 1 213 5 is_stmt 1 view .LVU178
 213:Core/Src/usart.c ****     HAL_GPIO_Init(GPIOC, &GPIO_InitStruct);
 533              		.loc 1 213 31 is_stmt 0 view .LVU179
 534 0142 0723     		movs	r3, #7
 535 0144 0B93     		str	r3, [sp, #44]
 214:Core/Src/usart.c **** 
 536              		.loc 1 214 5 is_stmt 1 view .LVU180
 537 0146 07A9     		add	r1, sp, #28
 538 0148 2448     		ldr	r0, .L33+28
 539              	.LVL19:
 214:Core/Src/usart.c **** 
 540              		.loc 1 214 5 is_stmt 0 view .LVU181
 541 014a FFF7FEFF 		bl	HAL_GPIO_Init
 542              	.LVL20:
 218:Core/Src/usart.c ****     hdma_usart3_rx.Init.Channel = DMA_CHANNEL_4;
 543              		.loc 1 218 5 is_stmt 1 view .LVU182
 218:Core/Src/usart.c ****     hdma_usart3_rx.Init.Channel = DMA_CHANNEL_4;
 544              		.loc 1 218 29 is_stmt 0 view .LVU183
 545 014e 2448     		ldr	r0, .L33+32
 546 0150 244B     		ldr	r3, .L33+36
 547 0152 0360     		str	r3, [r0]
 219:Core/Src/usart.c ****     hdma_usart3_rx.Init.Direction = DMA_PERIPH_TO_MEMORY;
 548              		.loc 1 219 5 is_stmt 1 view .LVU184
 219:Core/Src/usart.c ****     hdma_usart3_rx.Init.Direction = DMA_PERIPH_TO_MEMORY;
 549              		.loc 1 219 33 is_stmt 0 view .LVU185
 550 0154 4FF00063 		mov	r3, #134217728
 551 0158 4360     		str	r3, [r0, #4]
 220:Core/Src/usart.c ****     hdma_usart3_rx.Init.PeriphInc = DMA_PINC_DISABLE;
 552              		.loc 1 220 5 is_stmt 1 view .LVU186
 220:Core/Src/usart.c ****     hdma_usart3_rx.Init.PeriphInc = DMA_PINC_DISABLE;
ARM GAS  C:\Users\zhaohe\AppData\Local\Temp\ccjzgoIS.s 			page 17


 553              		.loc 1 220 35 is_stmt 0 view .LVU187
 554 015a 8560     		str	r5, [r0, #8]
 221:Core/Src/usart.c ****     hdma_usart3_rx.Init.MemInc = DMA_MINC_ENABLE;
 555              		.loc 1 221 5 is_stmt 1 view .LVU188
 221:Core/Src/usart.c ****     hdma_usart3_rx.Init.MemInc = DMA_MINC_ENABLE;
 556              		.loc 1 221 35 is_stmt 0 view .LVU189
 557 015c C560     		str	r5, [r0, #12]
 222:Core/Src/usart.c ****     hdma_usart3_rx.Init.PeriphDataAlignment = DMA_PDATAALIGN_BYTE;
 558              		.loc 1 222 5 is_stmt 1 view .LVU190
 222:Core/Src/usart.c ****     hdma_usart3_rx.Init.PeriphDataAlignment = DMA_PDATAALIGN_BYTE;
 559              		.loc 1 222 32 is_stmt 0 view .LVU191
 560 015e 4FF48063 		mov	r3, #1024
 561 0162 0361     		str	r3, [r0, #16]
 223:Core/Src/usart.c ****     hdma_usart3_rx.Init.MemDataAlignment = DMA_MDATAALIGN_BYTE;
 562              		.loc 1 223 5 is_stmt 1 view .LVU192
 223:Core/Src/usart.c ****     hdma_usart3_rx.Init.MemDataAlignment = DMA_MDATAALIGN_BYTE;
 563              		.loc 1 223 45 is_stmt 0 view .LVU193
 564 0164 4561     		str	r5, [r0, #20]
 224:Core/Src/usart.c ****     hdma_usart3_rx.Init.Mode = DMA_NORMAL;
 565              		.loc 1 224 5 is_stmt 1 view .LVU194
 224:Core/Src/usart.c ****     hdma_usart3_rx.Init.Mode = DMA_NORMAL;
 566              		.loc 1 224 42 is_stmt 0 view .LVU195
 567 0166 8561     		str	r5, [r0, #24]
 225:Core/Src/usart.c ****     hdma_usart3_rx.Init.Priority = DMA_PRIORITY_HIGH;
 568              		.loc 1 225 5 is_stmt 1 view .LVU196
 225:Core/Src/usart.c ****     hdma_usart3_rx.Init.Priority = DMA_PRIORITY_HIGH;
 569              		.loc 1 225 30 is_stmt 0 view .LVU197
 570 0168 C561     		str	r5, [r0, #28]
 226:Core/Src/usart.c ****     hdma_usart3_rx.Init.FIFOMode = DMA_FIFOMODE_DISABLE;
 571              		.loc 1 226 5 is_stmt 1 view .LVU198
 226:Core/Src/usart.c ****     hdma_usart3_rx.Init.FIFOMode = DMA_FIFOMODE_DISABLE;
 572              		.loc 1 226 34 is_stmt 0 view .LVU199
 573 016a 4FF40033 		mov	r3, #131072
 574 016e 0362     		str	r3, [r0, #32]
 227:Core/Src/usart.c ****     if (HAL_DMA_Init(&hdma_usart3_rx) != HAL_OK)
 575              		.loc 1 227 5 is_stmt 1 view .LVU200
 227:Core/Src/usart.c ****     if (HAL_DMA_Init(&hdma_usart3_rx) != HAL_OK)
 576              		.loc 1 227 34 is_stmt 0 view .LVU201
 577 0170 4562     		str	r5, [r0, #36]
 228:Core/Src/usart.c ****     {
 578              		.loc 1 228 5 is_stmt 1 view .LVU202
 228:Core/Src/usart.c ****     {
 579              		.loc 1 228 9 is_stmt 0 view .LVU203
 580 0172 FFF7FEFF 		bl	HAL_DMA_Init
 581              	.LVL21:
 228:Core/Src/usart.c ****     {
 582              		.loc 1 228 8 view .LVU204
 583 0176 E8B9     		cbnz	r0, .L31
 584              	.L24:
 233:Core/Src/usart.c **** 
 585              		.loc 1 233 5 is_stmt 1 view .LVU205
 233:Core/Src/usart.c **** 
 586              		.loc 1 233 5 view .LVU206
 587 0178 194B     		ldr	r3, .L33+32
 588 017a A363     		str	r3, [r4, #56]
 233:Core/Src/usart.c **** 
 589              		.loc 1 233 5 view .LVU207
ARM GAS  C:\Users\zhaohe\AppData\Local\Temp\ccjzgoIS.s 			page 18


 590 017c 9C63     		str	r4, [r3, #56]
 233:Core/Src/usart.c **** 
 591              		.loc 1 233 5 view .LVU208
 236:Core/Src/usart.c ****     hdma_usart3_tx.Init.Channel = DMA_CHANNEL_4;
 592              		.loc 1 236 5 view .LVU209
 236:Core/Src/usart.c ****     hdma_usart3_tx.Init.Channel = DMA_CHANNEL_4;
 593              		.loc 1 236 29 is_stmt 0 view .LVU210
 594 017e 1A48     		ldr	r0, .L33+40
 595 0180 1A4B     		ldr	r3, .L33+44
 596 0182 0360     		str	r3, [r0]
 237:Core/Src/usart.c ****     hdma_usart3_tx.Init.Direction = DMA_MEMORY_TO_PERIPH;
 597              		.loc 1 237 5 is_stmt 1 view .LVU211
 237:Core/Src/usart.c ****     hdma_usart3_tx.Init.Direction = DMA_MEMORY_TO_PERIPH;
 598              		.loc 1 237 33 is_stmt 0 view .LVU212
 599 0184 4FF00063 		mov	r3, #134217728
 600 0188 4360     		str	r3, [r0, #4]
 238:Core/Src/usart.c ****     hdma_usart3_tx.Init.PeriphInc = DMA_PINC_DISABLE;
 601              		.loc 1 238 5 is_stmt 1 view .LVU213
 238:Core/Src/usart.c ****     hdma_usart3_tx.Init.PeriphInc = DMA_PINC_DISABLE;
 602              		.loc 1 238 35 is_stmt 0 view .LVU214
 603 018a 4023     		movs	r3, #64
 604 018c 8360     		str	r3, [r0, #8]
 239:Core/Src/usart.c ****     hdma_usart3_tx.Init.MemInc = DMA_MINC_ENABLE;
 605              		.loc 1 239 5 is_stmt 1 view .LVU215
 239:Core/Src/usart.c ****     hdma_usart3_tx.Init.MemInc = DMA_MINC_ENABLE;
 606              		.loc 1 239 35 is_stmt 0 view .LVU216
 607 018e 0023     		movs	r3, #0
 608 0190 C360     		str	r3, [r0, #12]
 240:Core/Src/usart.c ****     hdma_usart3_tx.Init.PeriphDataAlignment = DMA_PDATAALIGN_BYTE;
 609              		.loc 1 240 5 is_stmt 1 view .LVU217
 240:Core/Src/usart.c ****     hdma_usart3_tx.Init.PeriphDataAlignment = DMA_PDATAALIGN_BYTE;
 610              		.loc 1 240 32 is_stmt 0 view .LVU218
 611 0192 4FF48062 		mov	r2, #1024
 612 0196 0261     		str	r2, [r0, #16]
 241:Core/Src/usart.c ****     hdma_usart3_tx.Init.MemDataAlignment = DMA_MDATAALIGN_BYTE;
 613              		.loc 1 241 5 is_stmt 1 view .LVU219
 241:Core/Src/usart.c ****     hdma_usart3_tx.Init.MemDataAlignment = DMA_MDATAALIGN_BYTE;
 614              		.loc 1 241 45 is_stmt 0 view .LVU220
 615 0198 4361     		str	r3, [r0, #20]
 242:Core/Src/usart.c ****     hdma_usart3_tx.Init.Mode = DMA_NORMAL;
 616              		.loc 1 242 5 is_stmt 1 view .LVU221
 242:Core/Src/usart.c ****     hdma_usart3_tx.Init.Mode = DMA_NORMAL;
 617              		.loc 1 242 42 is_stmt 0 view .LVU222
 618 019a 8361     		str	r3, [r0, #24]
 243:Core/Src/usart.c ****     hdma_usart3_tx.Init.Priority = DMA_PRIORITY_HIGH;
 619              		.loc 1 243 5 is_stmt 1 view .LVU223
 243:Core/Src/usart.c ****     hdma_usart3_tx.Init.Priority = DMA_PRIORITY_HIGH;
 620              		.loc 1 243 30 is_stmt 0 view .LVU224
 621 019c C361     		str	r3, [r0, #28]
 244:Core/Src/usart.c ****     hdma_usart3_tx.Init.FIFOMode = DMA_FIFOMODE_DISABLE;
 622              		.loc 1 244 5 is_stmt 1 view .LVU225
 244:Core/Src/usart.c ****     hdma_usart3_tx.Init.FIFOMode = DMA_FIFOMODE_DISABLE;
 623              		.loc 1 244 34 is_stmt 0 view .LVU226
 624 019e 4FF40032 		mov	r2, #131072
 625 01a2 0262     		str	r2, [r0, #32]
 245:Core/Src/usart.c ****     if (HAL_DMA_Init(&hdma_usart3_tx) != HAL_OK)
 626              		.loc 1 245 5 is_stmt 1 view .LVU227
ARM GAS  C:\Users\zhaohe\AppData\Local\Temp\ccjzgoIS.s 			page 19


 245:Core/Src/usart.c ****     if (HAL_DMA_Init(&hdma_usart3_tx) != HAL_OK)
 627              		.loc 1 245 34 is_stmt 0 view .LVU228
 628 01a4 4362     		str	r3, [r0, #36]
 246:Core/Src/usart.c ****     {
 629              		.loc 1 246 5 is_stmt 1 view .LVU229
 246:Core/Src/usart.c ****     {
 630              		.loc 1 246 9 is_stmt 0 view .LVU230
 631 01a6 FFF7FEFF 		bl	HAL_DMA_Init
 632              	.LVL22:
 246:Core/Src/usart.c ****     {
 633              		.loc 1 246 8 view .LVU231
 634 01aa 30B9     		cbnz	r0, .L32
 635              	.L25:
 251:Core/Src/usart.c **** 
 636              		.loc 1 251 5 is_stmt 1 view .LVU232
 251:Core/Src/usart.c **** 
 637              		.loc 1 251 5 view .LVU233
 638 01ac 0E4B     		ldr	r3, .L33+40
 639 01ae 6363     		str	r3, [r4, #52]
 251:Core/Src/usart.c **** 
 640              		.loc 1 251 5 view .LVU234
 641 01b0 9C63     		str	r4, [r3, #56]
 251:Core/Src/usart.c **** 
 642              		.loc 1 251 5 view .LVU235
 643              		.loc 1 257 1 is_stmt 0 view .LVU236
 644 01b2 38E7     		b	.L19
 645              	.L31:
 230:Core/Src/usart.c ****     }
 646              		.loc 1 230 7 is_stmt 1 view .LVU237
 647 01b4 FFF7FEFF 		bl	Error_Handler
 648              	.LVL23:
 649 01b8 DEE7     		b	.L24
 650              	.L32:
 248:Core/Src/usart.c ****     }
 651              		.loc 1 248 7 view .LVU238
 652 01ba FFF7FEFF 		bl	Error_Handler
 653              	.LVL24:
 654 01be F5E7     		b	.L25
 655              	.L34:
 656              		.align	2
 657              	.L33:
 658 01c0 00100140 		.word	1073811456
 659 01c4 00440040 		.word	1073759232
 660 01c8 00480040 		.word	1073760256
 661 01cc 00380240 		.word	1073887232
 662 01d0 00000240 		.word	1073872896
 663 01d4 00000000 		.word	.LANCHOR3
 664 01d8 88600240 		.word	1073897608
 665 01dc 00080240 		.word	1073874944
 666 01e0 00000000 		.word	.LANCHOR4
 667 01e4 28600240 		.word	1073897512
 668 01e8 00000000 		.word	.LANCHOR5
 669 01ec 58600240 		.word	1073897560
 670              		.cfi_endproc
 671              	.LFE133:
 673              		.section	.text.HAL_UART_MspDeInit,"ax",%progbits
 674              		.align	1
ARM GAS  C:\Users\zhaohe\AppData\Local\Temp\ccjzgoIS.s 			page 20


 675              		.global	HAL_UART_MspDeInit
 676              		.syntax unified
 677              		.thumb
 678              		.thumb_func
 680              	HAL_UART_MspDeInit:
 681              	.LVL25:
 682              	.LFB134:
 258:Core/Src/usart.c **** 
 259:Core/Src/usart.c **** void HAL_UART_MspDeInit(UART_HandleTypeDef* uartHandle)
 260:Core/Src/usart.c **** {
 683              		.loc 1 260 1 view -0
 684              		.cfi_startproc
 685              		@ args = 0, pretend = 0, frame = 0
 686              		@ frame_needed = 0, uses_anonymous_args = 0
 687              		.loc 1 260 1 is_stmt 0 view .LVU240
 688 0000 10B5     		push	{r4, lr}
 689              	.LCFI7:
 690              		.cfi_def_cfa_offset 8
 691              		.cfi_offset 4, -8
 692              		.cfi_offset 14, -4
 261:Core/Src/usart.c **** 
 262:Core/Src/usart.c ****   if(uartHandle->Instance==USART1)
 693              		.loc 1 262 3 is_stmt 1 view .LVU241
 694              		.loc 1 262 16 is_stmt 0 view .LVU242
 695 0002 0368     		ldr	r3, [r0]
 696              		.loc 1 262 5 view .LVU243
 697 0004 1F4A     		ldr	r2, .L43
 698 0006 9342     		cmp	r3, r2
 699 0008 07D0     		beq	.L40
 700 000a 0446     		mov	r4, r0
 263:Core/Src/usart.c ****   {
 264:Core/Src/usart.c ****   /* USER CODE BEGIN USART1_MspDeInit 0 */
 265:Core/Src/usart.c **** 
 266:Core/Src/usart.c ****   /* USER CODE END USART1_MspDeInit 0 */
 267:Core/Src/usart.c ****     /* Peripheral clock disable */
 268:Core/Src/usart.c ****     __HAL_RCC_USART1_CLK_DISABLE();
 269:Core/Src/usart.c **** 
 270:Core/Src/usart.c ****     /**USART1 GPIO Configuration
 271:Core/Src/usart.c ****     PA9     ------> USART1_TX
 272:Core/Src/usart.c ****     PA10     ------> USART1_RX
 273:Core/Src/usart.c ****     */
 274:Core/Src/usart.c ****     HAL_GPIO_DeInit(GPIOA, GPIO_PIN_9|GPIO_PIN_10);
 275:Core/Src/usart.c **** 
 276:Core/Src/usart.c ****     /* USART1 interrupt Deinit */
 277:Core/Src/usart.c ****     HAL_NVIC_DisableIRQ(USART1_IRQn);
 278:Core/Src/usart.c ****   /* USER CODE BEGIN USART1_MspDeInit 1 */
 279:Core/Src/usart.c **** 
 280:Core/Src/usart.c ****   /* USER CODE END USART1_MspDeInit 1 */
 281:Core/Src/usart.c ****   }
 282:Core/Src/usart.c ****   else if(uartHandle->Instance==USART2)
 701              		.loc 1 282 8 is_stmt 1 view .LVU244
 702              		.loc 1 282 10 is_stmt 0 view .LVU245
 703 000c 1E4A     		ldr	r2, .L43+4
 704 000e 9342     		cmp	r3, r2
 705 0010 12D0     		beq	.L41
 283:Core/Src/usart.c ****   {
 284:Core/Src/usart.c ****   /* USER CODE BEGIN USART2_MspDeInit 0 */
ARM GAS  C:\Users\zhaohe\AppData\Local\Temp\ccjzgoIS.s 			page 21


 285:Core/Src/usart.c **** 
 286:Core/Src/usart.c ****   /* USER CODE END USART2_MspDeInit 0 */
 287:Core/Src/usart.c ****     /* Peripheral clock disable */
 288:Core/Src/usart.c ****     __HAL_RCC_USART2_CLK_DISABLE();
 289:Core/Src/usart.c **** 
 290:Core/Src/usart.c ****     /**USART2 GPIO Configuration
 291:Core/Src/usart.c ****     PA2     ------> USART2_TX
 292:Core/Src/usart.c ****     PA3     ------> USART2_RX
 293:Core/Src/usart.c ****     */
 294:Core/Src/usart.c ****     HAL_GPIO_DeInit(GPIOA, GPIO_PIN_2|GPIO_PIN_3);
 295:Core/Src/usart.c **** 
 296:Core/Src/usart.c ****     /* USART2 DMA DeInit */
 297:Core/Src/usart.c ****     HAL_DMA_DeInit(uartHandle->hdmarx);
 298:Core/Src/usart.c **** 
 299:Core/Src/usart.c ****     /* USART2 interrupt Deinit */
 300:Core/Src/usart.c ****     HAL_NVIC_DisableIRQ(USART2_IRQn);
 301:Core/Src/usart.c ****   /* USER CODE BEGIN USART2_MspDeInit 1 */
 302:Core/Src/usart.c **** 
 303:Core/Src/usart.c ****   /* USER CODE END USART2_MspDeInit 1 */
 304:Core/Src/usart.c ****   }
 305:Core/Src/usart.c ****   else if(uartHandle->Instance==USART3)
 706              		.loc 1 305 8 is_stmt 1 view .LVU246
 707              		.loc 1 305 10 is_stmt 0 view .LVU247
 708 0012 1E4A     		ldr	r2, .L43+8
 709 0014 9342     		cmp	r3, r2
 710 0016 20D0     		beq	.L42
 711              	.LVL26:
 712              	.L35:
 306:Core/Src/usart.c ****   {
 307:Core/Src/usart.c ****   /* USER CODE BEGIN USART3_MspDeInit 0 */
 308:Core/Src/usart.c **** 
 309:Core/Src/usart.c ****   /* USER CODE END USART3_MspDeInit 0 */
 310:Core/Src/usart.c ****     /* Peripheral clock disable */
 311:Core/Src/usart.c ****     __HAL_RCC_USART3_CLK_DISABLE();
 312:Core/Src/usart.c **** 
 313:Core/Src/usart.c ****     /**USART3 GPIO Configuration
 314:Core/Src/usart.c ****     PC10     ------> USART3_TX
 315:Core/Src/usart.c ****     PC11     ------> USART3_RX
 316:Core/Src/usart.c ****     */
 317:Core/Src/usart.c ****     HAL_GPIO_DeInit(GPIOC, GPIO_PIN_10|GPIO_PIN_11);
 318:Core/Src/usart.c **** 
 319:Core/Src/usart.c ****     /* USART3 DMA DeInit */
 320:Core/Src/usart.c ****     HAL_DMA_DeInit(uartHandle->hdmarx);
 321:Core/Src/usart.c ****     HAL_DMA_DeInit(uartHandle->hdmatx);
 322:Core/Src/usart.c **** 
 323:Core/Src/usart.c ****     /* USART3 interrupt Deinit */
 324:Core/Src/usart.c ****     HAL_NVIC_DisableIRQ(USART3_IRQn);
 325:Core/Src/usart.c ****   /* USER CODE BEGIN USART3_MspDeInit 1 */
 326:Core/Src/usart.c **** 
 327:Core/Src/usart.c ****   /* USER CODE END USART3_MspDeInit 1 */
 328:Core/Src/usart.c ****   }
 329:Core/Src/usart.c **** }
 713              		.loc 1 329 1 view .LVU248
 714 0018 10BD     		pop	{r4, pc}
 715              	.LVL27:
 716              	.L40:
 268:Core/Src/usart.c **** 
ARM GAS  C:\Users\zhaohe\AppData\Local\Temp\ccjzgoIS.s 			page 22


 717              		.loc 1 268 5 is_stmt 1 view .LVU249
 718 001a 02F59432 		add	r2, r2, #75776
 719 001e 536C     		ldr	r3, [r2, #68]
 720 0020 23F01003 		bic	r3, r3, #16
 721 0024 5364     		str	r3, [r2, #68]
 274:Core/Src/usart.c **** 
 722              		.loc 1 274 5 view .LVU250
 723 0026 4FF4C061 		mov	r1, #1536
 724 002a 1948     		ldr	r0, .L43+12
 725              	.LVL28:
 274:Core/Src/usart.c **** 
 726              		.loc 1 274 5 is_stmt 0 view .LVU251
 727 002c FFF7FEFF 		bl	HAL_GPIO_DeInit
 728              	.LVL29:
 277:Core/Src/usart.c ****   /* USER CODE BEGIN USART1_MspDeInit 1 */
 729              		.loc 1 277 5 is_stmt 1 view .LVU252
 730 0030 2520     		movs	r0, #37
 731 0032 FFF7FEFF 		bl	HAL_NVIC_DisableIRQ
 732              	.LVL30:
 733 0036 EFE7     		b	.L35
 734              	.LVL31:
 735              	.L41:
 288:Core/Src/usart.c **** 
 736              		.loc 1 288 5 view .LVU253
 737 0038 02F5FA32 		add	r2, r2, #128000
 738 003c 136C     		ldr	r3, [r2, #64]
 739 003e 23F40033 		bic	r3, r3, #131072
 740 0042 1364     		str	r3, [r2, #64]
 294:Core/Src/usart.c **** 
 741              		.loc 1 294 5 view .LVU254
 742 0044 0C21     		movs	r1, #12
 743 0046 1248     		ldr	r0, .L43+12
 744              	.LVL32:
 294:Core/Src/usart.c **** 
 745              		.loc 1 294 5 is_stmt 0 view .LVU255
 746 0048 FFF7FEFF 		bl	HAL_GPIO_DeInit
 747              	.LVL33:
 297:Core/Src/usart.c **** 
 748              		.loc 1 297 5 is_stmt 1 view .LVU256
 749 004c A06B     		ldr	r0, [r4, #56]
 750 004e FFF7FEFF 		bl	HAL_DMA_DeInit
 751              	.LVL34:
 300:Core/Src/usart.c ****   /* USER CODE BEGIN USART2_MspDeInit 1 */
 752              		.loc 1 300 5 view .LVU257
 753 0052 2620     		movs	r0, #38
 754 0054 FFF7FEFF 		bl	HAL_NVIC_DisableIRQ
 755              	.LVL35:
 756 0058 DEE7     		b	.L35
 757              	.LVL36:
 758              	.L42:
 311:Core/Src/usart.c **** 
 759              		.loc 1 311 5 view .LVU258
 760 005a 02F5F832 		add	r2, r2, #126976
 761 005e 136C     		ldr	r3, [r2, #64]
 762 0060 23F48023 		bic	r3, r3, #262144
 763 0064 1364     		str	r3, [r2, #64]
 317:Core/Src/usart.c **** 
ARM GAS  C:\Users\zhaohe\AppData\Local\Temp\ccjzgoIS.s 			page 23


 764              		.loc 1 317 5 view .LVU259
 765 0066 4FF44061 		mov	r1, #3072
 766 006a 0A48     		ldr	r0, .L43+16
 767              	.LVL37:
 317:Core/Src/usart.c **** 
 768              		.loc 1 317 5 is_stmt 0 view .LVU260
 769 006c FFF7FEFF 		bl	HAL_GPIO_DeInit
 770              	.LVL38:
 320:Core/Src/usart.c ****     HAL_DMA_DeInit(uartHandle->hdmatx);
 771              		.loc 1 320 5 is_stmt 1 view .LVU261
 772 0070 A06B     		ldr	r0, [r4, #56]
 773 0072 FFF7FEFF 		bl	HAL_DMA_DeInit
 774              	.LVL39:
 321:Core/Src/usart.c **** 
 775              		.loc 1 321 5 view .LVU262
 776 0076 606B     		ldr	r0, [r4, #52]
 777 0078 FFF7FEFF 		bl	HAL_DMA_DeInit
 778              	.LVL40:
 324:Core/Src/usart.c ****   /* USER CODE BEGIN USART3_MspDeInit 1 */
 779              		.loc 1 324 5 view .LVU263
 780 007c 2720     		movs	r0, #39
 781 007e FFF7FEFF 		bl	HAL_NVIC_DisableIRQ
 782              	.LVL41:
 783              		.loc 1 329 1 is_stmt 0 view .LVU264
 784 0082 C9E7     		b	.L35
 785              	.L44:
 786              		.align	2
 787              	.L43:
 788 0084 00100140 		.word	1073811456
 789 0088 00440040 		.word	1073759232
 790 008c 00480040 		.word	1073760256
 791 0090 00000240 		.word	1073872896
 792 0094 00080240 		.word	1073874944
 793              		.cfi_endproc
 794              	.LFE134:
 796              		.global	hdma_usart3_tx
 797              		.global	hdma_usart3_rx
 798              		.global	hdma_usart2_rx
 799              		.global	huart3
 800              		.global	huart2
 801              		.global	huart1
 802              		.section	.bss.hdma_usart2_rx,"aw",%nobits
 803              		.align	2
 804              		.set	.LANCHOR3,. + 0
 807              	hdma_usart2_rx:
 808 0000 00000000 		.space	96
 808      00000000 
 808      00000000 
 808      00000000 
 808      00000000 
 809              		.section	.bss.hdma_usart3_rx,"aw",%nobits
 810              		.align	2
 811              		.set	.LANCHOR4,. + 0
 814              	hdma_usart3_rx:
 815 0000 00000000 		.space	96
 815      00000000 
 815      00000000 
ARM GAS  C:\Users\zhaohe\AppData\Local\Temp\ccjzgoIS.s 			page 24


 815      00000000 
 815      00000000 
 816              		.section	.bss.hdma_usart3_tx,"aw",%nobits
 817              		.align	2
 818              		.set	.LANCHOR5,. + 0
 821              	hdma_usart3_tx:
 822 0000 00000000 		.space	96
 822      00000000 
 822      00000000 
 822      00000000 
 822      00000000 
 823              		.section	.bss.huart1,"aw",%nobits
 824              		.align	2
 825              		.set	.LANCHOR0,. + 0
 828              	huart1:
 829 0000 00000000 		.space	68
 829      00000000 
 829      00000000 
 829      00000000 
 829      00000000 
 830              		.section	.bss.huart2,"aw",%nobits
 831              		.align	2
 832              		.set	.LANCHOR1,. + 0
 835              	huart2:
 836 0000 00000000 		.space	68
 836      00000000 
 836      00000000 
 836      00000000 
 836      00000000 
 837              		.section	.bss.huart3,"aw",%nobits
 838              		.align	2
 839              		.set	.LANCHOR2,. + 0
 842              	huart3:
 843 0000 00000000 		.space	68
 843      00000000 
 843      00000000 
 843      00000000 
 843      00000000 
 844              		.text
 845              	.Letext0:
 846              		.file 2 "e:\\gcc\\2021.10\\arm-none-eabi\\include\\machine\\_default_types.h"
 847              		.file 3 "e:\\gcc\\2021.10\\arm-none-eabi\\include\\sys\\_stdint.h"
 848              		.file 4 "Drivers/CMSIS/Device/ST/STM32F4xx/Include/stm32f405xx.h"
 849              		.file 5 "Drivers/STM32F4xx_HAL_Driver/Inc/stm32f4xx_hal_def.h"
 850              		.file 6 "Drivers/STM32F4xx_HAL_Driver/Inc/stm32f4xx_hal_gpio.h"
 851              		.file 7 "Drivers/STM32F4xx_HAL_Driver/Inc/stm32f4xx_hal_dma.h"
 852              		.file 8 "Drivers/STM32F4xx_HAL_Driver/Inc/stm32f4xx_hal_uart.h"
 853              		.file 9 "Core/Inc/usart.h"
 854              		.file 10 "Drivers/STM32F4xx_HAL_Driver/Inc/stm32f4xx_hal_cortex.h"
 855              		.file 11 "Core/Inc/main.h"
ARM GAS  C:\Users\zhaohe\AppData\Local\Temp\ccjzgoIS.s 			page 25

